Archive member included to satisfy reference by file (symbol)

c:/siliconlabs/simplicitystudio/v5/developer/toolchains/gnu_arm/10.3_2021.10/bin/../lib/gcc/arm-none-eabi/10.3.1/thumb/v8-m.main+fp/hard\libgcc.a(_arm_muldf3.o)
                              ./ADC_lib.o (__aeabi_dmul)
c:/siliconlabs/simplicitystudio/v5/developer/toolchains/gnu_arm/10.3_2021.10/bin/../lib/gcc/arm-none-eabi/10.3.1/thumb/v8-m.main+fp/hard\libgcc.a(_arm_addsubdf3.o)
                              ./ADC_lib.o (__aeabi_dsub)
c:/siliconlabs/simplicitystudio/v5/developer/toolchains/gnu_arm/10.3_2021.10/bin/../lib/gcc/arm-none-eabi/10.3.1/thumb/v8-m.main+fp/hard\libgcc.a(_arm_muldivdf3.o)
                              ./ADC_lib.o (__aeabi_ddiv)
c:/siliconlabs/simplicitystudio/v5/developer/toolchains/gnu_arm/10.3_2021.10/bin/../lib/gcc/arm-none-eabi/10.3.1/thumb/v8-m.main+fp/hard\libgcc.a(_arm_cmpdf2.o)
                              ./gecko_sdk_4.2.3/hardware/driver/bmp280/bosch/BMP280_driver/bmp280.o (__aeabi_dcmplt)
c:/siliconlabs/simplicitystudio/v5/developer/toolchains/gnu_arm/10.3_2021.10/bin/../lib/gcc/arm-none-eabi/10.3.1/thumb/v8-m.main+fp/hard\libgcc.a(_arm_fixdfsi.o)
                              ./gecko_sdk_4.2.3/hardware/driver/bmp280/bosch/BMP280_driver/bmp280.o (__aeabi_d2iz)
c:/siliconlabs/simplicitystudio/v5/developer/toolchains/gnu_arm/10.3_2021.10/bin/../lib/gcc/arm-none-eabi/10.3.1/thumb/v8-m.main+fp/hard\libgcc.a(_arm_truncdfsf2.o)
                              ./ADC_lib.o (__aeabi_d2f)
c:/siliconlabs/simplicitystudio/v5/developer/toolchains/gnu_arm/10.3_2021.10/bin/../lib/gcc/arm-none-eabi/10.3.1/thumb/v8-m.main+fp/hard\libgcc.a(_aeabi_ldivmod.o)
                              ./gecko_sdk_4.2.3/hardware/driver/bmp280/bosch/BMP280_driver/bmp280.o (__aeabi_ldivmod)
c:/siliconlabs/simplicitystudio/v5/developer/toolchains/gnu_arm/10.3_2021.10/bin/../lib/gcc/arm-none-eabi/10.3.1/thumb/v8-m.main+fp/hard\libgcc.a(_aeabi_uldivmod.o)
                              ./gecko_sdk_4.2.3/platform/emlib/src/em_eusart.o (__aeabi_uldivmod)
c:/siliconlabs/simplicitystudio/v5/developer/toolchains/gnu_arm/10.3_2021.10/bin/../lib/gcc/arm-none-eabi/10.3.1/thumb/v8-m.main+fp/hard\libgcc.a(_udivmoddi4.o)
                              c:/siliconlabs/simplicitystudio/v5/developer/toolchains/gnu_arm/10.3_2021.10/bin/../lib/gcc/arm-none-eabi/10.3.1/thumb/v8-m.main+fp/hard\libgcc.a(_aeabi_ldivmod.o) (__udivmoddi4)
c:/siliconlabs/simplicitystudio/v5/developer/toolchains/gnu_arm/10.3_2021.10/bin/../lib/gcc/arm-none-eabi/10.3.1/thumb/v8-m.main+fp/hard\libgcc.a(_dvmd_tls.o)
                              c:/siliconlabs/simplicitystudio/v5/developer/toolchains/gnu_arm/10.3_2021.10/bin/../lib/gcc/arm-none-eabi/10.3.1/thumb/v8-m.main+fp/hard\libgcc.a(_aeabi_ldivmod.o) (__aeabi_ldiv0)
c:/siliconlabs/simplicitystudio/v5/developer/toolchains/gnu_arm/10.3_2021.10/bin/../lib/gcc/arm-none-eabi/10.3.1/../../../../arm-none-eabi/lib/thumb/v8-m.main+fp/hard\libc_nano.a(lib_a-ctype_.o)
                              ./gecko_sdk_4.2.3/platform/common/src/sl_string.o (_ctype_)
c:/siliconlabs/simplicitystudio/v5/developer/toolchains/gnu_arm/10.3_2021.10/bin/../lib/gcc/arm-none-eabi/10.3.1/../../../../arm-none-eabi/lib/thumb/v8-m.main+fp/hard\libc_nano.a(lib_a-exit.o)
                              c:/siliconlabs/simplicitystudio/v5/developer/toolchains/gnu_arm/10.3_2021.10/bin/../lib/gcc/arm-none-eabi/10.3.1/../../../../arm-none-eabi/lib/thumb/v8-m.main+fp/hard/crt0.o (exit)
c:/siliconlabs/simplicitystudio/v5/developer/toolchains/gnu_arm/10.3_2021.10/bin/../lib/gcc/arm-none-eabi/10.3.1/../../../../arm-none-eabi/lib/thumb/v8-m.main+fp/hard\libc_nano.a(lib_a-impure.o)
                              c:/siliconlabs/simplicitystudio/v5/developer/toolchains/gnu_arm/10.3_2021.10/bin/../lib/gcc/arm-none-eabi/10.3.1/../../../../arm-none-eabi/lib/thumb/v8-m.main+fp/hard\libc_nano.a(lib_a-exit.o) (_global_impure_ptr)
c:/siliconlabs/simplicitystudio/v5/developer/toolchains/gnu_arm/10.3_2021.10/bin/../lib/gcc/arm-none-eabi/10.3.1/../../../../arm-none-eabi/lib/thumb/v8-m.main+fp/hard\libc_nano.a(lib_a-init.o)
                              c:/siliconlabs/simplicitystudio/v5/developer/toolchains/gnu_arm/10.3_2021.10/bin/../lib/gcc/arm-none-eabi/10.3.1/../../../../arm-none-eabi/lib/thumb/v8-m.main+fp/hard/crt0.o (__libc_init_array)
c:/siliconlabs/simplicitystudio/v5/developer/toolchains/gnu_arm/10.3_2021.10/bin/../lib/gcc/arm-none-eabi/10.3.1/../../../../arm-none-eabi/lib/thumb/v8-m.main+fp/hard\libc_nano.a(lib_a-memcpy-stub.o)
                              ./gecko_sdk_4.2.3/platform/service/iostream/src/sl_iostream_uart.o (memcpy)
c:/siliconlabs/simplicitystudio/v5/developer/toolchains/gnu_arm/10.3_2021.10/bin/../lib/gcc/arm-none-eabi/10.3.1/../../../../arm-none-eabi/lib/thumb/v8-m.main+fp/hard\libc_nano.a(lib_a-memset.o)
                              c:/siliconlabs/simplicitystudio/v5/developer/toolchains/gnu_arm/10.3_2021.10/bin/../lib/gcc/arm-none-eabi/10.3.1/../../../../arm-none-eabi/lib/thumb/v8-m.main+fp/hard/crt0.o (memset)
c:/siliconlabs/simplicitystudio/v5/developer/toolchains/gnu_arm/10.3_2021.10/bin/../lib/gcc/arm-none-eabi/10.3.1/../../../../arm-none-eabi/lib/thumb/v8-m.main+fp/hard\libc_nano.a(lib_a-nano-vfprintf_float.o)
                              (_printf_float)
c:/siliconlabs/simplicitystudio/v5/developer/toolchains/gnu_arm/10.3_2021.10/bin/../lib/gcc/arm-none-eabi/10.3.1/../../../../arm-none-eabi/lib/thumb/v8-m.main+fp/hard\libc_nano.a(lib_a-nano-vfprintf_i.o)
                              c:/siliconlabs/simplicitystudio/v5/developer/toolchains/gnu_arm/10.3_2021.10/bin/../lib/gcc/arm-none-eabi/10.3.1/../../../../arm-none-eabi/lib/thumb/v8-m.main+fp/hard\libc_nano.a(lib_a-nano-vfprintf_float.o) (_printf_common)
c:/siliconlabs/simplicitystudio/v5/developer/toolchains/gnu_arm/10.3_2021.10/bin/../lib/gcc/arm-none-eabi/10.3.1/../../../../arm-none-eabi/lib/thumb/v8-m.main+fp/hard\libc_nano.a(lib_a-printf.o)
                              ./ADC_lib.o (printf)
c:/siliconlabs/simplicitystudio/v5/developer/toolchains/gnu_arm/10.3_2021.10/bin/../lib/gcc/arm-none-eabi/10.3.1/../../../../arm-none-eabi/lib/thumb/v8-m.main+fp/hard\libc_nano.a(lib_a-setvbuf.o)
                              ./gecko_sdk_4.2.3/platform/service/iostream/src/sl_iostream_stdlib_config.o (setvbuf)
c:/siliconlabs/simplicitystudio/v5/developer/toolchains/gnu_arm/10.3_2021.10/bin/../lib/gcc/arm-none-eabi/10.3.1/../../../../arm-none-eabi/lib/thumb/v8-m.main+fp/hard\libc_nano.a(lib_a-sprintf.o)
                              ./lora_uart.o (sprintf)
c:/siliconlabs/simplicitystudio/v5/developer/toolchains/gnu_arm/10.3_2021.10/bin/../lib/gcc/arm-none-eabi/10.3.1/../../../../arm-none-eabi/lib/thumb/v8-m.main+fp/hard\libc_nano.a(lib_a-strcmp.o)
                              ./autogen/sl_iostream_handles.o (strcmp)
c:/siliconlabs/simplicitystudio/v5/developer/toolchains/gnu_arm/10.3_2021.10/bin/../lib/gcc/arm-none-eabi/10.3.1/../../../../arm-none-eabi/lib/thumb/v8-m.main+fp/hard\libc_nano.a(lib_a-strlen.o)
                              c:/siliconlabs/simplicitystudio/v5/developer/toolchains/gnu_arm/10.3_2021.10/bin/../lib/gcc/arm-none-eabi/10.3.1/../../../../arm-none-eabi/lib/thumb/v8-m.main+fp/hard\libc_nano.a(lib_a-nano-vfprintf_float.o) (strlen)
c:/siliconlabs/simplicitystudio/v5/developer/toolchains/gnu_arm/10.3_2021.10/bin/../lib/gcc/arm-none-eabi/10.3.1/../../../../arm-none-eabi/lib/thumb/v8-m.main+fp/hard\libc_nano.a(lib_a-vprintf.o)
                              ./gecko_sdk_4.2.3/platform/service/iostream/src/sl_iostream.o (vprintf)
c:/siliconlabs/simplicitystudio/v5/developer/toolchains/gnu_arm/10.3_2021.10/bin/../lib/gcc/arm-none-eabi/10.3.1/../../../../arm-none-eabi/lib/thumb/v8-m.main+fp/hard\libc_nano.a(lib_a-dtoa.o)
                              c:/siliconlabs/simplicitystudio/v5/developer/toolchains/gnu_arm/10.3_2021.10/bin/../lib/gcc/arm-none-eabi/10.3.1/../../../../arm-none-eabi/lib/thumb/v8-m.main+fp/hard\libc_nano.a(lib_a-nano-vfprintf_float.o) (_dtoa_r)
c:/siliconlabs/simplicitystudio/v5/developer/toolchains/gnu_arm/10.3_2021.10/bin/../lib/gcc/arm-none-eabi/10.3.1/../../../../arm-none-eabi/lib/thumb/v8-m.main+fp/hard\libc_nano.a(lib_a-fflush.o)
                              c:/siliconlabs/simplicitystudio/v5/developer/toolchains/gnu_arm/10.3_2021.10/bin/../lib/gcc/arm-none-eabi/10.3.1/../../../../arm-none-eabi/lib/thumb/v8-m.main+fp/hard\libc_nano.a(lib_a-setvbuf.o) (_fflush_r)
c:/siliconlabs/simplicitystudio/v5/developer/toolchains/gnu_arm/10.3_2021.10/bin/../lib/gcc/arm-none-eabi/10.3.1/../../../../arm-none-eabi/lib/thumb/v8-m.main+fp/hard\libc_nano.a(lib_a-findfp.o)
                              c:/siliconlabs/simplicitystudio/v5/developer/toolchains/gnu_arm/10.3_2021.10/bin/../lib/gcc/arm-none-eabi/10.3.1/../../../../arm-none-eabi/lib/thumb/v8-m.main+fp/hard\libc_nano.a(lib_a-printf.o) (__sinit)
c:/siliconlabs/simplicitystudio/v5/developer/toolchains/gnu_arm/10.3_2021.10/bin/../lib/gcc/arm-none-eabi/10.3.1/../../../../arm-none-eabi/lib/thumb/v8-m.main+fp/hard\libc_nano.a(lib_a-fwalk.o)
                              c:/siliconlabs/simplicitystudio/v5/developer/toolchains/gnu_arm/10.3_2021.10/bin/../lib/gcc/arm-none-eabi/10.3.1/../../../../arm-none-eabi/lib/thumb/v8-m.main+fp/hard\libc_nano.a(lib_a-findfp.o) (_fwalk)
c:/siliconlabs/simplicitystudio/v5/developer/toolchains/gnu_arm/10.3_2021.10/bin/../lib/gcc/arm-none-eabi/10.3.1/../../../../arm-none-eabi/lib/thumb/v8-m.main+fp/hard\libc_nano.a(lib_a-localeconv.o)
                              c:/siliconlabs/simplicitystudio/v5/developer/toolchains/gnu_arm/10.3_2021.10/bin/../lib/gcc/arm-none-eabi/10.3.1/../../../../arm-none-eabi/lib/thumb/v8-m.main+fp/hard\libc_nano.a(lib_a-nano-vfprintf_float.o) (_localeconv_r)
c:/siliconlabs/simplicitystudio/v5/developer/toolchains/gnu_arm/10.3_2021.10/bin/../lib/gcc/arm-none-eabi/10.3.1/../../../../arm-none-eabi/lib/thumb/v8-m.main+fp/hard\libc_nano.a(lib_a-lock.o)
                              c:/siliconlabs/simplicitystudio/v5/developer/toolchains/gnu_arm/10.3_2021.10/bin/../lib/gcc/arm-none-eabi/10.3.1/../../../../arm-none-eabi/lib/thumb/v8-m.main+fp/hard\libc_nano.a(lib_a-findfp.o) (__retarget_lock_init_recursive)
c:/siliconlabs/simplicitystudio/v5/developer/toolchains/gnu_arm/10.3_2021.10/bin/../lib/gcc/arm-none-eabi/10.3.1/../../../../arm-none-eabi/lib/thumb/v8-m.main+fp/hard\libc_nano.a(lib_a-makebuf.o)
                              c:/siliconlabs/simplicitystudio/v5/developer/toolchains/gnu_arm/10.3_2021.10/bin/../lib/gcc/arm-none-eabi/10.3.1/../../../../arm-none-eabi/lib/thumb/v8-m.main+fp/hard\libc_nano.a(lib_a-setvbuf.o) (__swhatbuf_r)
c:/siliconlabs/simplicitystudio/v5/developer/toolchains/gnu_arm/10.3_2021.10/bin/../lib/gcc/arm-none-eabi/10.3.1/../../../../arm-none-eabi/lib/thumb/v8-m.main+fp/hard\libc_nano.a(lib_a-malloc.o)
                              c:/siliconlabs/simplicitystudio/v5/developer/toolchains/gnu_arm/10.3_2021.10/bin/../lib/gcc/arm-none-eabi/10.3.1/../../../../arm-none-eabi/lib/thumb/v8-m.main+fp/hard\libc_nano.a(lib_a-setvbuf.o) (malloc)
c:/siliconlabs/simplicitystudio/v5/developer/toolchains/gnu_arm/10.3_2021.10/bin/../lib/gcc/arm-none-eabi/10.3.1/../../../../arm-none-eabi/lib/thumb/v8-m.main+fp/hard\libc_nano.a(lib_a-memchr-stub.o)
                              c:/siliconlabs/simplicitystudio/v5/developer/toolchains/gnu_arm/10.3_2021.10/bin/../lib/gcc/arm-none-eabi/10.3.1/../../../../arm-none-eabi/lib/thumb/v8-m.main+fp/hard\libc_nano.a(lib_a-nano-vfprintf_i.o) (memchr)
c:/siliconlabs/simplicitystudio/v5/developer/toolchains/gnu_arm/10.3_2021.10/bin/../lib/gcc/arm-none-eabi/10.3.1/../../../../arm-none-eabi/lib/thumb/v8-m.main+fp/hard\libc_nano.a(lib_a-mprec.o)
                              c:/siliconlabs/simplicitystudio/v5/developer/toolchains/gnu_arm/10.3_2021.10/bin/../lib/gcc/arm-none-eabi/10.3.1/../../../../arm-none-eabi/lib/thumb/v8-m.main+fp/hard\libc_nano.a(lib_a-dtoa.o) (_Balloc)
c:/siliconlabs/simplicitystudio/v5/developer/toolchains/gnu_arm/10.3_2021.10/bin/../lib/gcc/arm-none-eabi/10.3.1/../../../../arm-none-eabi/lib/thumb/v8-m.main+fp/hard\libc_nano.a(lib_a-nano-callocr.o)
                              c:/siliconlabs/simplicitystudio/v5/developer/toolchains/gnu_arm/10.3_2021.10/bin/../lib/gcc/arm-none-eabi/10.3.1/../../../../arm-none-eabi/lib/thumb/v8-m.main+fp/hard\libc_nano.a(lib_a-mprec.o) (_calloc_r)
c:/siliconlabs/simplicitystudio/v5/developer/toolchains/gnu_arm/10.3_2021.10/bin/../lib/gcc/arm-none-eabi/10.3.1/../../../../arm-none-eabi/lib/thumb/v8-m.main+fp/hard\libc_nano.a(lib_a-nano-freer.o)
                              c:/siliconlabs/simplicitystudio/v5/developer/toolchains/gnu_arm/10.3_2021.10/bin/../lib/gcc/arm-none-eabi/10.3.1/../../../../arm-none-eabi/lib/thumb/v8-m.main+fp/hard\libc_nano.a(lib_a-setvbuf.o) (_free_r)
c:/siliconlabs/simplicitystudio/v5/developer/toolchains/gnu_arm/10.3_2021.10/bin/../lib/gcc/arm-none-eabi/10.3.1/../../../../arm-none-eabi/lib/thumb/v8-m.main+fp/hard\libc_nano.a(lib_a-nano-mallocr.o)
                              c:/siliconlabs/simplicitystudio/v5/developer/toolchains/gnu_arm/10.3_2021.10/bin/../lib/gcc/arm-none-eabi/10.3.1/../../../../arm-none-eabi/lib/thumb/v8-m.main+fp/hard\libc_nano.a(lib_a-findfp.o) (_malloc_r)
c:/siliconlabs/simplicitystudio/v5/developer/toolchains/gnu_arm/10.3_2021.10/bin/../lib/gcc/arm-none-eabi/10.3.1/../../../../arm-none-eabi/lib/thumb/v8-m.main+fp/hard\libc_nano.a(lib_a-nano-svfprintf.o)
                              c:/siliconlabs/simplicitystudio/v5/developer/toolchains/gnu_arm/10.3_2021.10/bin/../lib/gcc/arm-none-eabi/10.3.1/../../../../arm-none-eabi/lib/thumb/v8-m.main+fp/hard\libc_nano.a(lib_a-sprintf.o) (_svfprintf_r)
c:/siliconlabs/simplicitystudio/v5/developer/toolchains/gnu_arm/10.3_2021.10/bin/../lib/gcc/arm-none-eabi/10.3.1/../../../../arm-none-eabi/lib/thumb/v8-m.main+fp/hard\libc_nano.a(lib_a-nano-vfprintf.o)
                              c:/siliconlabs/simplicitystudio/v5/developer/toolchains/gnu_arm/10.3_2021.10/bin/../lib/gcc/arm-none-eabi/10.3.1/../../../../arm-none-eabi/lib/thumb/v8-m.main+fp/hard\libc_nano.a(lib_a-printf.o) (_vfprintf_r)
c:/siliconlabs/simplicitystudio/v5/developer/toolchains/gnu_arm/10.3_2021.10/bin/../lib/gcc/arm-none-eabi/10.3.1/../../../../arm-none-eabi/lib/thumb/v8-m.main+fp/hard\libc_nano.a(lib_a-sbrkr.o)
                              c:/siliconlabs/simplicitystudio/v5/developer/toolchains/gnu_arm/10.3_2021.10/bin/../lib/gcc/arm-none-eabi/10.3.1/../../../../arm-none-eabi/lib/thumb/v8-m.main+fp/hard\libc_nano.a(lib_a-nano-mallocr.o) (_sbrk_r)
c:/siliconlabs/simplicitystudio/v5/developer/toolchains/gnu_arm/10.3_2021.10/bin/../lib/gcc/arm-none-eabi/10.3.1/../../../../arm-none-eabi/lib/thumb/v8-m.main+fp/hard\libc_nano.a(lib_a-stdio.o)
                              c:/siliconlabs/simplicitystudio/v5/developer/toolchains/gnu_arm/10.3_2021.10/bin/../lib/gcc/arm-none-eabi/10.3.1/../../../../arm-none-eabi/lib/thumb/v8-m.main+fp/hard\libc_nano.a(lib_a-findfp.o) (__sread)
c:/siliconlabs/simplicitystudio/v5/developer/toolchains/gnu_arm/10.3_2021.10/bin/../lib/gcc/arm-none-eabi/10.3.1/../../../../arm-none-eabi/lib/thumb/v8-m.main+fp/hard\libc_nano.a(lib_a-wbuf.o)
                              c:/siliconlabs/simplicitystudio/v5/developer/toolchains/gnu_arm/10.3_2021.10/bin/../lib/gcc/arm-none-eabi/10.3.1/../../../../arm-none-eabi/lib/thumb/v8-m.main+fp/hard\libc_nano.a(lib_a-nano-vfprintf.o) (__swbuf_r)
c:/siliconlabs/simplicitystudio/v5/developer/toolchains/gnu_arm/10.3_2021.10/bin/../lib/gcc/arm-none-eabi/10.3.1/../../../../arm-none-eabi/lib/thumb/v8-m.main+fp/hard\libc_nano.a(lib_a-writer.o)
                              c:/siliconlabs/simplicitystudio/v5/developer/toolchains/gnu_arm/10.3_2021.10/bin/../lib/gcc/arm-none-eabi/10.3.1/../../../../arm-none-eabi/lib/thumb/v8-m.main+fp/hard\libc_nano.a(lib_a-stdio.o) (_write_r)
c:/siliconlabs/simplicitystudio/v5/developer/toolchains/gnu_arm/10.3_2021.10/bin/../lib/gcc/arm-none-eabi/10.3.1/../../../../arm-none-eabi/lib/thumb/v8-m.main+fp/hard\libc_nano.a(lib_a-wsetup.o)
                              c:/siliconlabs/simplicitystudio/v5/developer/toolchains/gnu_arm/10.3_2021.10/bin/../lib/gcc/arm-none-eabi/10.3.1/../../../../arm-none-eabi/lib/thumb/v8-m.main+fp/hard\libc_nano.a(lib_a-nano-vfprintf.o) (__swsetup_r)
c:/siliconlabs/simplicitystudio/v5/developer/toolchains/gnu_arm/10.3_2021.10/bin/../lib/gcc/arm-none-eabi/10.3.1/../../../../arm-none-eabi/lib/thumb/v8-m.main+fp/hard\libc_nano.a(lib_a-assert.o)
                              c:/siliconlabs/simplicitystudio/v5/developer/toolchains/gnu_arm/10.3_2021.10/bin/../lib/gcc/arm-none-eabi/10.3.1/../../../../arm-none-eabi/lib/thumb/v8-m.main+fp/hard\libc_nano.a(lib_a-dtoa.o) (__assert_func)
c:/siliconlabs/simplicitystudio/v5/developer/toolchains/gnu_arm/10.3_2021.10/bin/../lib/gcc/arm-none-eabi/10.3.1/../../../../arm-none-eabi/lib/thumb/v8-m.main+fp/hard\libc_nano.a(lib_a-closer.o)
                              c:/siliconlabs/simplicitystudio/v5/developer/toolchains/gnu_arm/10.3_2021.10/bin/../lib/gcc/arm-none-eabi/10.3.1/../../../../arm-none-eabi/lib/thumb/v8-m.main+fp/hard\libc_nano.a(lib_a-stdio.o) (_close_r)
c:/siliconlabs/simplicitystudio/v5/developer/toolchains/gnu_arm/10.3_2021.10/bin/../lib/gcc/arm-none-eabi/10.3.1/../../../../arm-none-eabi/lib/thumb/v8-m.main+fp/hard\libc_nano.a(lib_a-fprintf.o)
                              c:/siliconlabs/simplicitystudio/v5/developer/toolchains/gnu_arm/10.3_2021.10/bin/../lib/gcc/arm-none-eabi/10.3.1/../../../../arm-none-eabi/lib/thumb/v8-m.main+fp/hard\libc_nano.a(lib_a-assert.o) (fiprintf)
c:/siliconlabs/simplicitystudio/v5/developer/toolchains/gnu_arm/10.3_2021.10/bin/../lib/gcc/arm-none-eabi/10.3.1/../../../../arm-none-eabi/lib/thumb/v8-m.main+fp/hard\libc_nano.a(lib_a-fstatr.o)
                              c:/siliconlabs/simplicitystudio/v5/developer/toolchains/gnu_arm/10.3_2021.10/bin/../lib/gcc/arm-none-eabi/10.3.1/../../../../arm-none-eabi/lib/thumb/v8-m.main+fp/hard\libc_nano.a(lib_a-makebuf.o) (_fstat_r)
c:/siliconlabs/simplicitystudio/v5/developer/toolchains/gnu_arm/10.3_2021.10/bin/../lib/gcc/arm-none-eabi/10.3.1/../../../../arm-none-eabi/lib/thumb/v8-m.main+fp/hard\libc_nano.a(lib_a-fvwrite.o)
                              c:/siliconlabs/simplicitystudio/v5/developer/toolchains/gnu_arm/10.3_2021.10/bin/../lib/gcc/arm-none-eabi/10.3.1/../../../../arm-none-eabi/lib/thumb/v8-m.main+fp/hard\libc_nano.a(lib_a-nano-vfprintf.o) (__sfvwrite_r)
c:/siliconlabs/simplicitystudio/v5/developer/toolchains/gnu_arm/10.3_2021.10/bin/../lib/gcc/arm-none-eabi/10.3.1/../../../../arm-none-eabi/lib/thumb/v8-m.main+fp/hard\libc_nano.a(lib_a-isattyr.o)
                              c:/siliconlabs/simplicitystudio/v5/developer/toolchains/gnu_arm/10.3_2021.10/bin/../lib/gcc/arm-none-eabi/10.3.1/../../../../arm-none-eabi/lib/thumb/v8-m.main+fp/hard\libc_nano.a(lib_a-makebuf.o) (_isatty_r)
c:/siliconlabs/simplicitystudio/v5/developer/toolchains/gnu_arm/10.3_2021.10/bin/../lib/gcc/arm-none-eabi/10.3.1/../../../../arm-none-eabi/lib/thumb/v8-m.main+fp/hard\libc_nano.a(lib_a-locale.o)
                              c:/siliconlabs/simplicitystudio/v5/developer/toolchains/gnu_arm/10.3_2021.10/bin/../lib/gcc/arm-none-eabi/10.3.1/../../../../arm-none-eabi/lib/thumb/v8-m.main+fp/hard\libc_nano.a(lib_a-localeconv.o) (__global_locale)
c:/siliconlabs/simplicitystudio/v5/developer/toolchains/gnu_arm/10.3_2021.10/bin/../lib/gcc/arm-none-eabi/10.3.1/../../../../arm-none-eabi/lib/thumb/v8-m.main+fp/hard\libc_nano.a(lib_a-lseekr.o)
                              c:/siliconlabs/simplicitystudio/v5/developer/toolchains/gnu_arm/10.3_2021.10/bin/../lib/gcc/arm-none-eabi/10.3.1/../../../../arm-none-eabi/lib/thumb/v8-m.main+fp/hard\libc_nano.a(lib_a-stdio.o) (_lseek_r)
c:/siliconlabs/simplicitystudio/v5/developer/toolchains/gnu_arm/10.3_2021.10/bin/../lib/gcc/arm-none-eabi/10.3.1/../../../../arm-none-eabi/lib/thumb/v8-m.main+fp/hard\libc_nano.a(lib_a-mbtowc_r.o)
                              c:/siliconlabs/simplicitystudio/v5/developer/toolchains/gnu_arm/10.3_2021.10/bin/../lib/gcc/arm-none-eabi/10.3.1/../../../../arm-none-eabi/lib/thumb/v8-m.main+fp/hard\libc_nano.a(lib_a-locale.o) (__ascii_mbtowc)
c:/siliconlabs/simplicitystudio/v5/developer/toolchains/gnu_arm/10.3_2021.10/bin/../lib/gcc/arm-none-eabi/10.3.1/../../../../arm-none-eabi/lib/thumb/v8-m.main+fp/hard\libc_nano.a(lib_a-memmove.o)
                              c:/siliconlabs/simplicitystudio/v5/developer/toolchains/gnu_arm/10.3_2021.10/bin/../lib/gcc/arm-none-eabi/10.3.1/../../../../arm-none-eabi/lib/thumb/v8-m.main+fp/hard\libc_nano.a(lib_a-nano-svfprintf.o) (memmove)
c:/siliconlabs/simplicitystudio/v5/developer/toolchains/gnu_arm/10.3_2021.10/bin/../lib/gcc/arm-none-eabi/10.3.1/../../../../arm-none-eabi/lib/thumb/v8-m.main+fp/hard\libc_nano.a(lib_a-mlock.o)
                              c:/siliconlabs/simplicitystudio/v5/developer/toolchains/gnu_arm/10.3_2021.10/bin/../lib/gcc/arm-none-eabi/10.3.1/../../../../arm-none-eabi/lib/thumb/v8-m.main+fp/hard\libc_nano.a(lib_a-nano-freer.o) (__malloc_lock)
c:/siliconlabs/simplicitystudio/v5/developer/toolchains/gnu_arm/10.3_2021.10/bin/../lib/gcc/arm-none-eabi/10.3.1/../../../../arm-none-eabi/lib/thumb/v8-m.main+fp/hard\libc_nano.a(lib_a-nano-reallocr.o)
                              c:/siliconlabs/simplicitystudio/v5/developer/toolchains/gnu_arm/10.3_2021.10/bin/../lib/gcc/arm-none-eabi/10.3.1/../../../../arm-none-eabi/lib/thumb/v8-m.main+fp/hard\libc_nano.a(lib_a-nano-svfprintf.o) (_realloc_r)
c:/siliconlabs/simplicitystudio/v5/developer/toolchains/gnu_arm/10.3_2021.10/bin/../lib/gcc/arm-none-eabi/10.3.1/../../../../arm-none-eabi/lib/thumb/v8-m.main+fp/hard\libc_nano.a(lib_a-readr.o)
                              c:/siliconlabs/simplicitystudio/v5/developer/toolchains/gnu_arm/10.3_2021.10/bin/../lib/gcc/arm-none-eabi/10.3.1/../../../../arm-none-eabi/lib/thumb/v8-m.main+fp/hard\libc_nano.a(lib_a-stdio.o) (_read_r)
c:/siliconlabs/simplicitystudio/v5/developer/toolchains/gnu_arm/10.3_2021.10/bin/../lib/gcc/arm-none-eabi/10.3.1/../../../../arm-none-eabi/lib/thumb/v8-m.main+fp/hard\libc_nano.a(lib_a-reent.o)
                              c:/siliconlabs/simplicitystudio/v5/developer/toolchains/gnu_arm/10.3_2021.10/bin/../lib/gcc/arm-none-eabi/10.3.1/../../../../arm-none-eabi/lib/thumb/v8-m.main+fp/hard\libc_nano.a(lib_a-sbrkr.o) (errno)
c:/siliconlabs/simplicitystudio/v5/developer/toolchains/gnu_arm/10.3_2021.10/bin/../lib/gcc/arm-none-eabi/10.3.1/../../../../arm-none-eabi/lib/thumb/v8-m.main+fp/hard\libc_nano.a(lib_a-wctomb_r.o)
                              c:/siliconlabs/simplicitystudio/v5/developer/toolchains/gnu_arm/10.3_2021.10/bin/../lib/gcc/arm-none-eabi/10.3.1/../../../../arm-none-eabi/lib/thumb/v8-m.main+fp/hard\libc_nano.a(lib_a-locale.o) (__ascii_wctomb)
c:/siliconlabs/simplicitystudio/v5/developer/toolchains/gnu_arm/10.3_2021.10/bin/../lib/gcc/arm-none-eabi/10.3.1/../../../../arm-none-eabi/lib/thumb/v8-m.main+fp/hard\libc_nano.a(lib_a-abort.o)
                              c:/siliconlabs/simplicitystudio/v5/developer/toolchains/gnu_arm/10.3_2021.10/bin/../lib/gcc/arm-none-eabi/10.3.1/../../../../arm-none-eabi/lib/thumb/v8-m.main+fp/hard\libc_nano.a(lib_a-assert.o) (abort)
c:/siliconlabs/simplicitystudio/v5/developer/toolchains/gnu_arm/10.3_2021.10/bin/../lib/gcc/arm-none-eabi/10.3.1/../../../../arm-none-eabi/lib/thumb/v8-m.main+fp/hard\libc_nano.a(lib_a-nano-msizer.o)
                              c:/siliconlabs/simplicitystudio/v5/developer/toolchains/gnu_arm/10.3_2021.10/bin/../lib/gcc/arm-none-eabi/10.3.1/../../../../arm-none-eabi/lib/thumb/v8-m.main+fp/hard\libc_nano.a(lib_a-nano-reallocr.o) (_malloc_usable_size_r)
c:/siliconlabs/simplicitystudio/v5/developer/toolchains/gnu_arm/10.3_2021.10/bin/../lib/gcc/arm-none-eabi/10.3.1/../../../../arm-none-eabi/lib/thumb/v8-m.main+fp/hard\libc_nano.a(lib_a-signal.o)
                              c:/siliconlabs/simplicitystudio/v5/developer/toolchains/gnu_arm/10.3_2021.10/bin/../lib/gcc/arm-none-eabi/10.3.1/../../../../arm-none-eabi/lib/thumb/v8-m.main+fp/hard\libc_nano.a(lib_a-abort.o) (raise)
c:/siliconlabs/simplicitystudio/v5/developer/toolchains/gnu_arm/10.3_2021.10/bin/../lib/gcc/arm-none-eabi/10.3.1/../../../../arm-none-eabi/lib/thumb/v8-m.main+fp/hard\libc_nano.a(lib_a-signalr.o)
                              c:/siliconlabs/simplicitystudio/v5/developer/toolchains/gnu_arm/10.3_2021.10/bin/../lib/gcc/arm-none-eabi/10.3.1/../../../../arm-none-eabi/lib/thumb/v8-m.main+fp/hard\libc_nano.a(lib_a-signal.o) (_kill_r)
c:/siliconlabs/simplicitystudio/v5/developer/toolchains/gnu_arm/10.3_2021.10/bin/../lib/gcc/arm-none-eabi/10.3.1/thumb/v8-m.main+fp/hard\libgcc.a(_arm_unorddf2.o)
                              c:/siliconlabs/simplicitystudio/v5/developer/toolchains/gnu_arm/10.3_2021.10/bin/../lib/gcc/arm-none-eabi/10.3.1/../../../../arm-none-eabi/lib/thumb/v8-m.main+fp/hard\libc_nano.a(lib_a-nano-vfprintf_float.o) (__aeabi_dcmpun)

Discarded input sections

 .text          0x00000000        0x0 c:/siliconlabs/simplicitystudio/v5/developer/toolchains/gnu_arm/10.3_2021.10/bin/../lib/gcc/arm-none-eabi/10.3.1/thumb/v8-m.main+fp/hard/crti.o
 .data          0x00000000        0x0 c:/siliconlabs/simplicitystudio/v5/developer/toolchains/gnu_arm/10.3_2021.10/bin/../lib/gcc/arm-none-eabi/10.3.1/thumb/v8-m.main+fp/hard/crti.o
 .bss           0x00000000        0x0 c:/siliconlabs/simplicitystudio/v5/developer/toolchains/gnu_arm/10.3_2021.10/bin/../lib/gcc/arm-none-eabi/10.3.1/thumb/v8-m.main+fp/hard/crti.o
 .data          0x00000000        0x4 c:/siliconlabs/simplicitystudio/v5/developer/toolchains/gnu_arm/10.3_2021.10/bin/../lib/gcc/arm-none-eabi/10.3.1/thumb/v8-m.main+fp/hard/crtbegin.o
 .rodata        0x00000000       0x24 c:/siliconlabs/simplicitystudio/v5/developer/toolchains/gnu_arm/10.3_2021.10/bin/../lib/gcc/arm-none-eabi/10.3.1/thumb/v8-m.main+fp/hard/crtbegin.o
 .data          0x00000000        0x0 c:/siliconlabs/simplicitystudio/v5/developer/toolchains/gnu_arm/10.3_2021.10/bin/../lib/gcc/arm-none-eabi/10.3.1/../../../../arm-none-eabi/lib/thumb/v8-m.main+fp/hard/crt0.o
 .bss           0x00000000        0x0 c:/siliconlabs/simplicitystudio/v5/developer/toolchains/gnu_arm/10.3_2021.10/bin/../lib/gcc/arm-none-eabi/10.3.1/../../../../arm-none-eabi/lib/thumb/v8-m.main+fp/hard/crt0.o
 .ARM.extab     0x00000000        0x0 c:/siliconlabs/simplicitystudio/v5/developer/toolchains/gnu_arm/10.3_2021.10/bin/../lib/gcc/arm-none-eabi/10.3.1/../../../../arm-none-eabi/lib/thumb/v8-m.main+fp/hard/crt0.o
 .text          0x00000000        0x0 ./ADC_lib.o
 .data          0x00000000        0x0 ./ADC_lib.o
 .bss           0x00000000        0x0 ./ADC_lib.o
 .text          0x00000000        0x0 ./app.o
 .data          0x00000000        0x0 ./app.o
 .bss           0x00000000        0x0 ./app.o
 .text          0x00000000        0x0 ./bh1750.o
 .data          0x00000000        0x0 ./bh1750.o
 .bss           0x00000000        0x0 ./bh1750.o
 .text.bh1750_power_down
                0x00000000       0x20 ./bh1750.o
 .text.bh1750_power_on
                0x00000000       0x20 ./bh1750.o
 .text.bh1750_set_measurement_time
                0x00000000       0x44 ./bh1750.o
 .text          0x00000000        0x0 ./i2c_scan.o
 .data          0x00000000        0x0 ./i2c_scan.o
 .bss           0x00000000        0x0 ./i2c_scan.o
 .text          0x00000000        0x0 ./lora_uart.o
 .data          0x00000000        0x0 ./lora_uart.o
 .bss           0x00000000        0x0 ./lora_uart.o
 .text          0x00000000        0x0 ./main.o
 .data          0x00000000        0x0 ./main.o
 .bss           0x00000000        0x0 ./main.o
 .text          0x00000000        0x0 ./pms7003.o
 .data          0x00000000        0x0 ./pms7003.o
 .bss           0x00000000        0x0 ./pms7003.o
 .text          0x00000000        0x0 ./autogen/sl_board_default_init.o
 .data          0x00000000        0x0 ./autogen/sl_board_default_init.o
 .bss           0x00000000        0x0 ./autogen/sl_board_default_init.o
 .text          0x00000000        0x0 ./autogen/sl_device_init_clocks.o
 .data          0x00000000        0x0 ./autogen/sl_device_init_clocks.o
 .bss           0x00000000        0x0 ./autogen/sl_device_init_clocks.o
 .text          0x00000000        0x0 ./autogen/sl_event_handler.o
 .data          0x00000000        0x0 ./autogen/sl_event_handler.o
 .bss           0x00000000        0x0 ./autogen/sl_event_handler.o
 .text          0x00000000        0x0 ./autogen/sl_i2cspm_init.o
 .data          0x00000000        0x0 ./autogen/sl_i2cspm_init.o
 .bss           0x00000000        0x0 ./autogen/sl_i2cspm_init.o
 .text          0x00000000        0x0 ./autogen/sl_iostream_handles.o
 .data          0x00000000        0x0 ./autogen/sl_iostream_handles.o
 .bss           0x00000000        0x0 ./autogen/sl_iostream_handles.o
 .text.sl_iostream_get_handle
                0x00000000       0x34 ./autogen/sl_iostream_handles.o
 .data.sl_iostream_instances_info
                0x00000000        0x8 ./autogen/sl_iostream_handles.o
 .rodata.sl_iostream_instances_count
                0x00000000        0x4 ./autogen/sl_iostream_handles.o
 .debug_info    0x00000000      0x306 ./autogen/sl_iostream_handles.o
 .debug_abbrev  0x00000000      0x18a ./autogen/sl_iostream_handles.o
 .debug_loc     0x00000000       0x9a ./autogen/sl_iostream_handles.o
 .debug_aranges
                0x00000000       0x20 ./autogen/sl_iostream_handles.o
 .debug_ranges  0x00000000       0x28 ./autogen/sl_iostream_handles.o
 .debug_line    0x00000000      0x404 ./autogen/sl_iostream_handles.o
 .debug_str     0x00000000      0x35f ./autogen/sl_iostream_handles.o
 .comment       0x00000000       0x4a ./autogen/sl_iostream_handles.o
 .debug_frame   0x00000000       0x30 ./autogen/sl_iostream_handles.o
 .ARM.attributes
                0x00000000       0x3a ./autogen/sl_iostream_handles.o
 .text          0x00000000        0x0 ./autogen/sl_iostream_init_eusart_instances.o
 .data          0x00000000        0x0 ./autogen/sl_iostream_init_eusart_instances.o
 .bss           0x00000000        0x0 ./autogen/sl_iostream_init_eusart_instances.o
 .rodata.str1.1
                0x00000000        0x7 ./autogen/sl_iostream_init_eusart_instances.o
 .data.sl_iostream_instance_mikroe_info
                0x00000000       0x10 ./autogen/sl_iostream_init_eusart_instances.o
 .data.sl_iostream_uart_mikroe_handle
                0x00000000        0x4 ./autogen/sl_iostream_init_eusart_instances.o
 .text          0x00000000        0x0 ./autogen/sl_iostream_init_usart_instances.o
 .data          0x00000000        0x0 ./autogen/sl_iostream_init_usart_instances.o
 .bss           0x00000000        0x0 ./autogen/sl_iostream_init_usart_instances.o
 .rodata.str1.1
                0x00000000        0x5 ./autogen/sl_iostream_init_usart_instances.o
 .data.sl_iostream_instance_vcom_info
                0x00000000       0x10 ./autogen/sl_iostream_init_usart_instances.o
 .data.sl_iostream_uart_vcom_handle
                0x00000000        0x4 ./autogen/sl_iostream_init_usart_instances.o
 .data.sl_iostream_vcom_handle
                0x00000000        0x4 ./autogen/sl_iostream_init_usart_instances.o
 .text          0x00000000        0x0 ./gecko_sdk_4.2.3/app/common/util/app_log/app_log.o
 .data          0x00000000        0x0 ./gecko_sdk_4.2.3/app/common/util/app_log/app_log.o
 .bss           0x00000000        0x0 ./gecko_sdk_4.2.3/app/common/util/app_log/app_log.o
 .text._app_log_check_level
                0x00000000       0x40 ./gecko_sdk_4.2.3/app/common/util/app_log/app_log.o
 .text.app_log_filter_threshold_enable
                0x00000000        0xc ./gecko_sdk_4.2.3/app/common/util/app_log/app_log.o
 .text.app_log_filter_mask_enable
                0x00000000        0xc ./gecko_sdk_4.2.3/app/common/util/app_log/app_log.o
 .text.app_log_filter_threshold_set
                0x00000000       0x14 ./gecko_sdk_4.2.3/app/common/util/app_log/app_log.o
 .text.app_log_filter_mask_set
                0x00000000       0x14 ./gecko_sdk_4.2.3/app/common/util/app_log/app_log.o
 .text.app_log_filter_threshold_get
                0x00000000        0xc ./gecko_sdk_4.2.3/app/common/util/app_log/app_log.o
 .text.app_log_filter_mask_get
                0x00000000        0xc ./gecko_sdk_4.2.3/app/common/util/app_log/app_log.o
 .text.app_log_iostream_set
                0x00000000       0x34 ./gecko_sdk_4.2.3/app/common/util/app_log/app_log.o
 .text.app_log_iostream_get
                0x00000000        0xc ./gecko_sdk_4.2.3/app/common/util/app_log/app_log.o
 .text._app_log_time
                0x00000000        0x2 ./gecko_sdk_4.2.3/app/common/util/app_log/app_log.o
 .text._app_log_counter
                0x00000000        0x2 ./gecko_sdk_4.2.3/app/common/util/app_log/app_log.o
 .rodata.sl_status_print.str1.1
                0x00000000        0x2 ./gecko_sdk_4.2.3/app/common/util/app_log/app_log.o
 .text.sl_status_print
                0x00000000       0x14 ./gecko_sdk_4.2.3/app/common/util/app_log/app_log.o
 .rodata._app_log_status_string.str1.1
                0x00000000        0x5 ./gecko_sdk_4.2.3/app/common/util/app_log/app_log.o
 .text._app_log_status_string
                0x00000000       0x40 ./gecko_sdk_4.2.3/app/common/util/app_log/app_log.o
 .text          0x00000000        0x0 ./gecko_sdk_4.2.3/hardware/board/src/sl_board_control_gpio.o
 .data          0x00000000        0x0 ./gecko_sdk_4.2.3/hardware/board/src/sl_board_control_gpio.o
 .bss           0x00000000        0x0 ./gecko_sdk_4.2.3/hardware/board/src/sl_board_control_gpio.o
 .text.sl_board_enable_vcom
                0x00000000        0x4 ./gecko_sdk_4.2.3/hardware/board/src/sl_board_control_gpio.o
 .text.sl_board_disable_vcom
                0x00000000        0x4 ./gecko_sdk_4.2.3/hardware/board/src/sl_board_control_gpio.o
 .text.sl_board_enable_display
                0x00000000        0x4 ./gecko_sdk_4.2.3/hardware/board/src/sl_board_control_gpio.o
 .text.sl_board_disable_display
                0x00000000        0x4 ./gecko_sdk_4.2.3/hardware/board/src/sl_board_control_gpio.o
 .rodata.sl_board_enable_sensor.str1.1
                0x00000000       0x67 ./gecko_sdk_4.2.3/hardware/board/src/sl_board_control_gpio.o
 .text.sl_board_enable_sensor
                0x00000000       0x54 ./gecko_sdk_4.2.3/hardware/board/src/sl_board_control_gpio.o
 .text.sl_board_disable_sensor
                0x00000000       0x54 ./gecko_sdk_4.2.3/hardware/board/src/sl_board_control_gpio.o
 .text.sl_board_enable_memory
                0x00000000       0x28 ./gecko_sdk_4.2.3/hardware/board/src/sl_board_control_gpio.o
 .text.sl_board_disable_memory
                0x00000000       0x28 ./gecko_sdk_4.2.3/hardware/board/src/sl_board_control_gpio.o
 .text.sl_board_enable_oscillator
                0x00000000       0x1c ./gecko_sdk_4.2.3/hardware/board/src/sl_board_control_gpio.o
 .text.sl_board_disable_oscillator
                0x00000000       0x1c ./gecko_sdk_4.2.3/hardware/board/src/sl_board_control_gpio.o
 .text          0x00000000        0x0 ./gecko_sdk_4.2.3/hardware/board/src/sl_board_init.o
 .data          0x00000000        0x0 ./gecko_sdk_4.2.3/hardware/board/src/sl_board_init.o
 .bss           0x00000000        0x0 ./gecko_sdk_4.2.3/hardware/board/src/sl_board_init.o
 .text          0x00000000        0x0 ./gecko_sdk_4.2.3/hardware/driver/bmp280/bosch/BMP280_driver/bmp280.o
 .data          0x00000000        0x0 ./gecko_sdk_4.2.3/hardware/driver/bmp280/bosch/BMP280_driver/bmp280.o
 .bss           0x00000000        0x0 ./gecko_sdk_4.2.3/hardware/driver/bmp280/bosch/BMP280_driver/bmp280.o
 .text.bmp280_compensate_pressure_int32
                0x00000000       0xa8 ./gecko_sdk_4.2.3/hardware/driver/bmp280/bosch/BMP280_driver/bmp280.o
 .text.bmp280_read_pressure_temperature
                0x00000000       0x3c ./gecko_sdk_4.2.3/hardware/driver/bmp280/bosch/BMP280_driver/bmp280.o
 .text.bmp280_get_oversamp_temperature
                0x00000000       0x3c ./gecko_sdk_4.2.3/hardware/driver/bmp280/bosch/BMP280_driver/bmp280.o
 .text.bmp280_set_oversamp_temperature
                0x00000000       0x58 ./gecko_sdk_4.2.3/hardware/driver/bmp280/bosch/BMP280_driver/bmp280.o
 .text.bmp280_get_oversamp_pressure
                0x00000000       0x40 ./gecko_sdk_4.2.3/hardware/driver/bmp280/bosch/BMP280_driver/bmp280.o
 .text.bmp280_set_oversamp_pressure
                0x00000000       0x5c ./gecko_sdk_4.2.3/hardware/driver/bmp280/bosch/BMP280_driver/bmp280.o
 .text.bmp280_get_power_mode
                0x00000000       0x38 ./gecko_sdk_4.2.3/hardware/driver/bmp280/bosch/BMP280_driver/bmp280.o
 .text.bmp280_set_soft_rst
                0x00000000       0x2c ./gecko_sdk_4.2.3/hardware/driver/bmp280/bosch/BMP280_driver/bmp280.o
 .text.bmp280_get_spi3
                0x00000000       0x38 ./gecko_sdk_4.2.3/hardware/driver/bmp280/bosch/BMP280_driver/bmp280.o
 .text.bmp280_set_spi3
                0x00000000       0x54 ./gecko_sdk_4.2.3/hardware/driver/bmp280/bosch/BMP280_driver/bmp280.o
 .text.bmp280_get_filter
                0x00000000       0x38 ./gecko_sdk_4.2.3/hardware/driver/bmp280/bosch/BMP280_driver/bmp280.o
 .text.bmp280_set_filter
                0x00000000       0x58 ./gecko_sdk_4.2.3/hardware/driver/bmp280/bosch/BMP280_driver/bmp280.o
 .text.bmp280_get_standby_durn
                0x00000000       0x38 ./gecko_sdk_4.2.3/hardware/driver/bmp280/bosch/BMP280_driver/bmp280.o
 .text.bmp280_set_standby_durn
                0x00000000       0x54 ./gecko_sdk_4.2.3/hardware/driver/bmp280/bosch/BMP280_driver/bmp280.o
 .text.bmp280_write_register
                0x00000000       0x28 ./gecko_sdk_4.2.3/hardware/driver/bmp280/bosch/BMP280_driver/bmp280.o
 .text.bmp280_read_register
                0x00000000       0x28 ./gecko_sdk_4.2.3/hardware/driver/bmp280/bosch/BMP280_driver/bmp280.o
 .text.bmp280_compensate_temperature_double
                0x00000000       0xf8 ./gecko_sdk_4.2.3/hardware/driver/bmp280/bosch/BMP280_driver/bmp280.o
 .text.bmp280_compensate_pressure_double
                0x00000000      0x22c ./gecko_sdk_4.2.3/hardware/driver/bmp280/bosch/BMP280_driver/bmp280.o
 .text          0x00000000        0x0 ./gecko_sdk_4.2.3/hardware/driver/bmp280/src/sl_bmp280.o
 .data          0x00000000        0x0 ./gecko_sdk_4.2.3/hardware/driver/bmp280/src/sl_bmp280.o
 .bss           0x00000000        0x0 ./gecko_sdk_4.2.3/hardware/driver/bmp280/src/sl_bmp280.o
 .text.sl_bmp280_deinit
                0x00000000       0x10 ./gecko_sdk_4.2.3/hardware/driver/bmp280/src/sl_bmp280.o
 .text.sl_bmp280_configure
                0x00000000       0x3c ./gecko_sdk_4.2.3/hardware/driver/bmp280/src/sl_bmp280.o
 .text          0x00000000        0x0 ./gecko_sdk_4.2.3/platform/Device/SiliconLabs/EFR32MG24/Source/startup_efr32mg24.o
 .data          0x00000000        0x0 ./gecko_sdk_4.2.3/platform/Device/SiliconLabs/EFR32MG24/Source/startup_efr32mg24.o
 .bss           0x00000000        0x0 ./gecko_sdk_4.2.3/platform/Device/SiliconLabs/EFR32MG24/Source/startup_efr32mg24.o
 .text          0x00000000        0x0 ./gecko_sdk_4.2.3/platform/Device/SiliconLabs/EFR32MG24/Source/system_efr32mg24.o
 .data          0x00000000        0x0 ./gecko_sdk_4.2.3/platform/Device/SiliconLabs/EFR32MG24/Source/system_efr32mg24.o
 .bss           0x00000000        0x0 ./gecko_sdk_4.2.3/platform/Device/SiliconLabs/EFR32MG24/Source/system_efr32mg24.o
 .text.SystemHFRCODPLLClockSet
                0x00000000        0xc ./gecko_sdk_4.2.3/platform/Device/SiliconLabs/EFR32MG24/Source/system_efr32mg24.o
 .text.SystemLFXOClockSet
                0x00000000        0xc ./gecko_sdk_4.2.3/platform/Device/SiliconLabs/EFR32MG24/Source/system_efr32mg24.o
 .text          0x00000000        0x0 ./gecko_sdk_4.2.3/platform/common/src/sl_assert.o
 .data          0x00000000        0x0 ./gecko_sdk_4.2.3/platform/common/src/sl_assert.o
 .bss           0x00000000        0x0 ./gecko_sdk_4.2.3/platform/common/src/sl_assert.o
 .text          0x00000000        0x0 ./gecko_sdk_4.2.3/platform/common/src/sl_slist.o
 .data          0x00000000        0x0 ./gecko_sdk_4.2.3/platform/common/src/sl_slist.o
 .bss           0x00000000        0x0 ./gecko_sdk_4.2.3/platform/common/src/sl_slist.o
 .text.sl_slist_init
                0x00000000        0x6 ./gecko_sdk_4.2.3/platform/common/src/sl_slist.o
 .rodata.sl_slist_push.str1.1
                0x00000000       0x5b ./gecko_sdk_4.2.3/platform/common/src/sl_slist.o
 .text.sl_slist_push
                0x00000000       0x20 ./gecko_sdk_4.2.3/platform/common/src/sl_slist.o
 .text.sl_slist_push_back
                0x00000000       0x24 ./gecko_sdk_4.2.3/platform/common/src/sl_slist.o
 .text.sl_slist_pop
                0x00000000       0x20 ./gecko_sdk_4.2.3/platform/common/src/sl_slist.o
 .text.sl_slist_insert
                0x00000000       0x20 ./gecko_sdk_4.2.3/platform/common/src/sl_slist.o
 .text.sl_slist_remove
                0x00000000       0x28 ./gecko_sdk_4.2.3/platform/common/src/sl_slist.o
 .text.sl_slist_sort
                0x00000000       0x50 ./gecko_sdk_4.2.3/platform/common/src/sl_slist.o
 .debug_info    0x00000000      0x3e7 ./gecko_sdk_4.2.3/platform/common/src/sl_slist.o
 .debug_abbrev  0x00000000      0x163 ./gecko_sdk_4.2.3/platform/common/src/sl_slist.o
 .debug_loc     0x00000000      0x3c3 ./gecko_sdk_4.2.3/platform/common/src/sl_slist.o
 .debug_aranges
                0x00000000       0x50 ./gecko_sdk_4.2.3/platform/common/src/sl_slist.o
 .debug_ranges  0x00000000       0x58 ./gecko_sdk_4.2.3/platform/common/src/sl_slist.o
 .debug_line    0x00000000      0x36f ./gecko_sdk_4.2.3/platform/common/src/sl_slist.o
 .debug_str     0x00000000      0x304 ./gecko_sdk_4.2.3/platform/common/src/sl_slist.o
 .comment       0x00000000       0x4a ./gecko_sdk_4.2.3/platform/common/src/sl_slist.o
 .debug_frame   0x00000000       0xc8 ./gecko_sdk_4.2.3/platform/common/src/sl_slist.o
 .ARM.attributes
                0x00000000       0x3a ./gecko_sdk_4.2.3/platform/common/src/sl_slist.o
 .text          0x00000000        0x0 ./gecko_sdk_4.2.3/platform/common/src/sl_string.o
 .data          0x00000000        0x0 ./gecko_sdk_4.2.3/platform/common/src/sl_string.o
 .bss           0x00000000        0x0 ./gecko_sdk_4.2.3/platform/common/src/sl_string.o
 .text.sl_strcpy_s
                0x00000000       0x22 ./gecko_sdk_4.2.3/platform/common/src/sl_string.o
 .text.sl_strnlen
                0x00000000       0x16 ./gecko_sdk_4.2.3/platform/common/src/sl_string.o
 .text.sl_strlen
                0x00000000        0x8 ./gecko_sdk_4.2.3/platform/common/src/sl_string.o
 .text.sl_strcat_s
                0x00000000       0x26 ./gecko_sdk_4.2.3/platform/common/src/sl_string.o
 .text.sl_str_is_empty
                0x00000000       0x10 ./gecko_sdk_4.2.3/platform/common/src/sl_string.o
 .text.sl_strcasecmp
                0x00000000       0x44 ./gecko_sdk_4.2.3/platform/common/src/sl_string.o
 .text.sl_memrchr
                0x00000000       0x8c ./gecko_sdk_4.2.3/platform/common/src/sl_string.o
 .debug_info    0x00000000      0x49c ./gecko_sdk_4.2.3/platform/common/src/sl_string.o
 .debug_abbrev  0x00000000      0x243 ./gecko_sdk_4.2.3/platform/common/src/sl_string.o
 .debug_loc     0x00000000      0x752 ./gecko_sdk_4.2.3/platform/common/src/sl_string.o
 .debug_aranges
                0x00000000       0x50 ./gecko_sdk_4.2.3/platform/common/src/sl_string.o
 .debug_ranges  0x00000000       0xb0 ./gecko_sdk_4.2.3/platform/common/src/sl_string.o
 .debug_line    0x00000000      0x52b ./gecko_sdk_4.2.3/platform/common/src/sl_string.o
 .debug_str     0x00000000      0x30f ./gecko_sdk_4.2.3/platform/common/src/sl_string.o
 .comment       0x00000000       0x4a ./gecko_sdk_4.2.3/platform/common/src/sl_string.o
 .debug_frame   0x00000000       0xb8 ./gecko_sdk_4.2.3/platform/common/src/sl_string.o
 .ARM.attributes
                0x00000000       0x3a ./gecko_sdk_4.2.3/platform/common/src/sl_string.o
 .text          0x00000000        0x0 ./gecko_sdk_4.2.3/platform/common/toolchain/src/sl_memory.o
 .data          0x00000000        0x0 ./gecko_sdk_4.2.3/platform/common/toolchain/src/sl_memory.o
 .bss           0x00000000        0x0 ./gecko_sdk_4.2.3/platform/common/toolchain/src/sl_memory.o
 .text.sl_memory_get_stack_region
                0x00000000       0x10 ./gecko_sdk_4.2.3/platform/common/toolchain/src/sl_memory.o
 .text.sl_memory_get_heap_region
                0x00000000       0x14 ./gecko_sdk_4.2.3/platform/common/toolchain/src/sl_memory.o
 .text          0x00000000        0x0 ./gecko_sdk_4.2.3/platform/driver/i2cspm/src/sl_i2cspm.o
 .data          0x00000000        0x0 ./gecko_sdk_4.2.3/platform/driver/i2cspm/src/sl_i2cspm.o
 .bss           0x00000000        0x0 ./gecko_sdk_4.2.3/platform/driver/i2cspm/src/sl_i2cspm.o
 .text          0x00000000        0x0 ./gecko_sdk_4.2.3/platform/emdrv/dmadrv/src/dmadrv.o
 .data          0x00000000        0x0 ./gecko_sdk_4.2.3/platform/emdrv/dmadrv/src/dmadrv.o
 .bss           0x00000000        0x0 ./gecko_sdk_4.2.3/platform/emdrv/dmadrv/src/dmadrv.o
 .text.DMADRV_LdmaStartTransfer
                0x00000000       0x4c ./gecko_sdk_4.2.3/platform/emdrv/dmadrv/src/dmadrv.o
 .text.DMADRV_MemoryPeripheral
                0x00000000       0x34 ./gecko_sdk_4.2.3/platform/emdrv/dmadrv/src/dmadrv.o
 .text.DMADRV_MemoryPeripheralPingPong
                0x00000000       0x34 ./gecko_sdk_4.2.3/platform/emdrv/dmadrv/src/dmadrv.o
 .text.DMADRV_PeripheralMemoryPingPong
                0x00000000       0x34 ./gecko_sdk_4.2.3/platform/emdrv/dmadrv/src/dmadrv.o
 .text.DMADRV_TransferActive
                0x00000000       0x50 ./gecko_sdk_4.2.3/platform/emdrv/dmadrv/src/dmadrv.o
 .text.DMADRV_TransferRemainingCount
                0x00000000       0x44 ./gecko_sdk_4.2.3/platform/emdrv/dmadrv/src/dmadrv.o
 .rodata.m2p    0x00000000       0x10 ./gecko_sdk_4.2.3/platform/emdrv/dmadrv/src/dmadrv.o
 .rodata.p2m    0x00000000       0x10 ./gecko_sdk_4.2.3/platform/emdrv/dmadrv/src/dmadrv.o
 .rodata.xferCfg
                0x00000000       0x10 ./gecko_sdk_4.2.3/platform/emdrv/dmadrv/src/dmadrv.o
 .text          0x00000000        0x0 ./gecko_sdk_4.2.3/platform/emlib/src/em_burtc.o
 .data          0x00000000        0x0 ./gecko_sdk_4.2.3/platform/emlib/src/em_burtc.o
 .bss           0x00000000        0x0 ./gecko_sdk_4.2.3/platform/emlib/src/em_burtc.o
 .text.BURTC_SyncWait
                0x00000000       0x14 ./gecko_sdk_4.2.3/platform/emlib/src/em_burtc.o
 .rodata.BURTC_Init.str1.1
                0x00000000       0x5a ./gecko_sdk_4.2.3/platform/emlib/src/em_burtc.o
 .text.BURTC_Init
                0x00000000       0x88 ./gecko_sdk_4.2.3/platform/emlib/src/em_burtc.o
 .text.BURTC_Enable
                0x00000000       0x44 ./gecko_sdk_4.2.3/platform/emlib/src/em_burtc.o
 .text.BURTC_CompareSet
                0x00000000       0x2c ./gecko_sdk_4.2.3/platform/emlib/src/em_burtc.o
 .text.BURTC_CompareGet
                0x00000000       0x1c ./gecko_sdk_4.2.3/platform/emlib/src/em_burtc.o
 .text.BURTC_CounterReset
                0x00000000       0x20 ./gecko_sdk_4.2.3/platform/emlib/src/em_burtc.o
 .text.BURTC_Reset
                0x00000000       0x4c ./gecko_sdk_4.2.3/platform/emlib/src/em_burtc.o
 .debug_info    0x00000000      0x843 ./gecko_sdk_4.2.3/platform/emlib/src/em_burtc.o
 .debug_abbrev  0x00000000      0x2a1 ./gecko_sdk_4.2.3/platform/emlib/src/em_burtc.o
 .debug_loc     0x00000000      0x1fa ./gecko_sdk_4.2.3/platform/emlib/src/em_burtc.o
 .debug_aranges
                0x00000000       0x50 ./gecko_sdk_4.2.3/platform/emlib/src/em_burtc.o
 .debug_ranges  0x00000000       0x80 ./gecko_sdk_4.2.3/platform/emlib/src/em_burtc.o
 .debug_line    0x00000000      0x68e ./gecko_sdk_4.2.3/platform/emlib/src/em_burtc.o
 .debug_str     0x00000000      0x534 ./gecko_sdk_4.2.3/platform/emlib/src/em_burtc.o
 .comment       0x00000000       0x4a ./gecko_sdk_4.2.3/platform/emlib/src/em_burtc.o
 .debug_frame   0x00000000       0xb4 ./gecko_sdk_4.2.3/platform/emlib/src/em_burtc.o
 .ARM.attributes
                0x00000000       0x3a ./gecko_sdk_4.2.3/platform/emlib/src/em_burtc.o
 .text          0x00000000        0x0 ./gecko_sdk_4.2.3/platform/emlib/src/em_cmu.o
 .data          0x00000000        0x0 ./gecko_sdk_4.2.3/platform/emlib/src/em_cmu.o
 .bss           0x00000000        0x0 ./gecko_sdk_4.2.3/platform/emlib/src/em_cmu.o
 .text.HFRCODPLLDevinfoGet
                0x00000000      0x10c ./gecko_sdk_4.2.3/platform/emlib/src/em_cmu.o
 .text.CMU_CalibrateConfig
                0x00000000       0xe8 ./gecko_sdk_4.2.3/platform/emlib/src/em_cmu.o
 .text.CMU_CalibrateCountGet
                0x00000000       0x1c ./gecko_sdk_4.2.3/platform/emlib/src/em_cmu.o
 .text.CMU_Calibrate
                0x00000000       0x3c ./gecko_sdk_4.2.3/platform/emlib/src/em_cmu.o
 .text.CMU_ClkOutPinConfig
                0x00000000      0x120 ./gecko_sdk_4.2.3/platform/emlib/src/em_cmu.o
 .text.sli_em_cmu_SYSTICEXTCLKENSet
                0x00000000       0x30 ./gecko_sdk_4.2.3/platform/emlib/src/em_cmu.o
 .text.sli_em_cmu_SYSTICEXTCLKENClear
                0x00000000       0x30 ./gecko_sdk_4.2.3/platform/emlib/src/em_cmu.o
 .text.CMU_LF_ClockPrecisionGet
                0x00000000       0x44 ./gecko_sdk_4.2.3/platform/emlib/src/em_cmu.o
 .text.CMU_HFRCODPLLBandGet
                0x00000000        0x4 ./gecko_sdk_4.2.3/platform/emlib/src/em_cmu.o
 .text.CMU_HFXOStartCrystalSharingLeader
                0x00000000       0x94 ./gecko_sdk_4.2.3/platform/emlib/src/em_cmu.o
 .text.CMU_HFXOCrystalSharingFollowerInit
                0x00000000       0xec ./gecko_sdk_4.2.3/platform/emlib/src/em_cmu.o
 .text.CMU_HFXOCTuneSet
                0x00000000       0x90 ./gecko_sdk_4.2.3/platform/emlib/src/em_cmu.o
 .text.CMU_HFXOCTuneGet
                0x00000000       0x54 ./gecko_sdk_4.2.3/platform/emlib/src/em_cmu.o
 .text.CMU_HFXOCTuneDeltaSet
                0x00000000        0xc ./gecko_sdk_4.2.3/platform/emlib/src/em_cmu.o
 .text.CMU_HFXOCoreBiasCurrentCalibrate
                0x00000000       0x78 ./gecko_sdk_4.2.3/platform/emlib/src/em_cmu.o
 .text.CMU_LFXOPrecisionGet
                0x00000000        0xc ./gecko_sdk_4.2.3/platform/emlib/src/em_cmu.o
 .text.CMU_LFRCOSetPrecision
                0x00000000       0x80 ./gecko_sdk_4.2.3/platform/emlib/src/em_cmu.o
 .text.CMU_OscillatorTuningGet
                0x00000000       0x54 ./gecko_sdk_4.2.3/platform/emlib/src/em_cmu.o
 .text.CMU_OscillatorTuningSet
                0x00000000       0xd8 ./gecko_sdk_4.2.3/platform/emlib/src/em_cmu.o
 .text.CMU_HFRCODPLLBandSet
                0x00000000      0x118 ./gecko_sdk_4.2.3/platform/emlib/src/em_cmu.o
 .text.CMU_DPLLLock
                0x00000000      0x280 ./gecko_sdk_4.2.3/platform/emlib/src/em_cmu.o
 .text.CMU_PCNTClockExternalSet
                0x00000000       0x14 ./gecko_sdk_4.2.3/platform/emlib/src/em_cmu.o
 .text.CMU_HFRCOEM23BandGet
                0x00000000        0x4 ./gecko_sdk_4.2.3/platform/emlib/src/em_cmu.o
 .text.CMU_HFRCOEM23BandSet
                0x00000000       0xfc ./gecko_sdk_4.2.3/platform/emlib/src/em_cmu.o
 .rodata.hfrcoCalTable
                0x00000000      0x190 ./gecko_sdk_4.2.3/platform/emlib/src/em_cmu.o
 .text          0x00000000        0x0 ./gecko_sdk_4.2.3/platform/emlib/src/em_core.o
 .data          0x00000000        0x0 ./gecko_sdk_4.2.3/platform/emlib/src/em_core.o
 .bss           0x00000000        0x0 ./gecko_sdk_4.2.3/platform/emlib/src/em_core.o
 .text.__NVIC_GetPriority
                0x00000000       0x24 ./gecko_sdk_4.2.3/platform/emlib/src/em_core.o
 .text.CORE_CriticalDisableIrq
                0x00000000        0x4 ./gecko_sdk_4.2.3/platform/emlib/src/em_core.o
 .text.CORE_CriticalEnableIrq
                0x00000000        0x4 ./gecko_sdk_4.2.3/platform/emlib/src/em_core.o
 .text.CORE_YieldCritical
                0x00000000       0x12 ./gecko_sdk_4.2.3/platform/emlib/src/em_core.o
 .text.CORE_AtomicDisableIrq
                0x00000000        0x8 ./gecko_sdk_4.2.3/platform/emlib/src/em_core.o
 .text.CORE_AtomicEnableIrq
                0x00000000        0x8 ./gecko_sdk_4.2.3/platform/emlib/src/em_core.o
 .text.CORE_YieldAtomic
                0x00000000       0x18 ./gecko_sdk_4.2.3/platform/emlib/src/em_core.o
 .text.CORE_EnterNvicMask
                0x00000000       0x2c ./gecko_sdk_4.2.3/platform/emlib/src/em_core.o
 .text.CORE_NvicDisableMask
                0x00000000       0x20 ./gecko_sdk_4.2.3/platform/emlib/src/em_core.o
 .text.CORE_NvicEnableMask
                0x00000000       0x20 ./gecko_sdk_4.2.3/platform/emlib/src/em_core.o
 .text.CORE_YieldNvicMask
                0x00000000       0x48 ./gecko_sdk_4.2.3/platform/emlib/src/em_core.o
 .rodata.CORE_NvicMaskSetIRQ.str1.1
                0x00000000       0x59 ./gecko_sdk_4.2.3/platform/emlib/src/em_core.o
 .text.CORE_NvicMaskSetIRQ
                0x00000000       0x34 ./gecko_sdk_4.2.3/platform/emlib/src/em_core.o
 .text.CORE_NvicMaskClearIRQ
                0x00000000       0x34 ./gecko_sdk_4.2.3/platform/emlib/src/em_core.o
 .text.CORE_InIrqContext
                0x00000000       0x14 ./gecko_sdk_4.2.3/platform/emlib/src/em_core.o
 .text.CORE_IrqIsDisabled
                0x00000000       0x1a ./gecko_sdk_4.2.3/platform/emlib/src/em_core.o
 .text.CORE_GetNvicEnabledMask
                0x00000000       0x20 ./gecko_sdk_4.2.3/platform/emlib/src/em_core.o
 .text.CORE_GetNvicMaskDisableState
                0x00000000       0x38 ./gecko_sdk_4.2.3/platform/emlib/src/em_core.o
 .text.CORE_NvicIRQDisabled
                0x00000000       0x34 ./gecko_sdk_4.2.3/platform/emlib/src/em_core.o
 .text.CORE_IrqIsBlocked
                0x00000000       0x6c ./gecko_sdk_4.2.3/platform/emlib/src/em_core.o
 .text.CORE_GetNvicRamTableHandler
                0x00000000       0x2c ./gecko_sdk_4.2.3/platform/emlib/src/em_core.o
 .text.CORE_SetNvicRamTableHandler
                0x00000000       0x30 ./gecko_sdk_4.2.3/platform/emlib/src/em_core.o
 .text.CORE_InitNvicVectorTable
                0x00000000       0xa0 ./gecko_sdk_4.2.3/platform/emlib/src/em_core.o
 .text          0x00000000        0x0 ./gecko_sdk_4.2.3/platform/emlib/src/em_emu.o
 .data          0x00000000        0x0 ./gecko_sdk_4.2.3/platform/emlib/src/em_emu.o
 .bss           0x00000000        0x0 ./gecko_sdk_4.2.3/platform/emlib/src/em_emu.o
 .text.EMU_EM23Init
                0x00000000       0x18 ./gecko_sdk_4.2.3/platform/emlib/src/em_emu.o
 .text.EMU_EM23PresleepHook
                0x00000000        0x2 ./gecko_sdk_4.2.3/platform/emlib/src/em_emu.o
 .text.EMU_EFPEM23PresleepHook
                0x00000000        0x2 ./gecko_sdk_4.2.3/platform/emlib/src/em_emu.o
 .text.EMU_EM23PostsleepHook
                0x00000000        0x2 ./gecko_sdk_4.2.3/platform/emlib/src/em_emu.o
 .text.EMU_EFPEM23PostsleepHook
                0x00000000        0x2 ./gecko_sdk_4.2.3/platform/emlib/src/em_emu.o
 .text.EMU_EnterEM2
                0x00000000       0x30 ./gecko_sdk_4.2.3/platform/emlib/src/em_emu.o
 .text.EMU_EnterEM3
                0x00000000       0x28 ./gecko_sdk_4.2.3/platform/emlib/src/em_emu.o
 .text.EMU_Save
                0x00000000        0x2 ./gecko_sdk_4.2.3/platform/emlib/src/em_emu.o
 .text.EMU_Restore
                0x00000000        0x2 ./gecko_sdk_4.2.3/platform/emlib/src/em_emu.o
 .text.EMU_EM4PresleepHook
                0x00000000        0x2 ./gecko_sdk_4.2.3/platform/emlib/src/em_emu.o
 .text.EMU_EFPEM4PresleepHook
                0x00000000        0x2 ./gecko_sdk_4.2.3/platform/emlib/src/em_emu.o
 .text.EMU_MemPwrDown
                0x00000000        0x2 ./gecko_sdk_4.2.3/platform/emlib/src/em_emu.o
 .text.EMU_RamPowerDown
                0x00000000       0x50 ./gecko_sdk_4.2.3/platform/emlib/src/em_emu.o
 .text.EMU_RamPowerUp
                0x00000000       0x18 ./gecko_sdk_4.2.3/platform/emlib/src/em_emu.o
 .text.EMU_UpdateOscConfig
                0x00000000        0x2 ./gecko_sdk_4.2.3/platform/emlib/src/em_emu.o
 .text.EMU_EM01Init
                0x00000000       0x14 ./gecko_sdk_4.2.3/platform/emlib/src/em_emu.o
 .text.EMU_EnterEM4
                0x00000000       0x78 ./gecko_sdk_4.2.3/platform/emlib/src/em_emu.o
 .text.EMU_EnterEM4Wait
                0x00000000       0x14 ./gecko_sdk_4.2.3/platform/emlib/src/em_emu.o
 .text.EMU_EnterEM4H
                0x00000000        0x4 ./gecko_sdk_4.2.3/platform/emlib/src/em_emu.o
 .text.EMU_EnterEM4S
                0x00000000        0x4 ./gecko_sdk_4.2.3/platform/emlib/src/em_emu.o
 .text.EMU_DCDCPowerOff
                0x00000000        0xc ./gecko_sdk_4.2.3/platform/emlib/src/em_emu.o
 .text.EMU_EM01PeakCurrentSet
                0x00000000       0x60 ./gecko_sdk_4.2.3/platform/emlib/src/em_emu.o
 .text.EMU_DCDCSetPFMXTimeoutMaxCtrl
                0x00000000       0x58 ./gecko_sdk_4.2.3/platform/emlib/src/em_emu.o
 .text.EMU_TemperatureGet
                0x00000000       0x24 ./gecko_sdk_4.2.3/platform/emlib/src/em_emu.o
 .text.EMU_EFPDirectModeEnable
                0x00000000       0x18 ./gecko_sdk_4.2.3/platform/emlib/src/em_emu.o
 .text.EMU_EFPDriveDecoupleSet
                0x00000000       0x18 ./gecko_sdk_4.2.3/platform/emlib/src/em_emu.o
 .text.EMU_EFPDriveDvddSet
                0x00000000       0x18 ./gecko_sdk_4.2.3/platform/emlib/src/em_emu.o
 .text          0x00000000        0x0 ./gecko_sdk_4.2.3/platform/emlib/src/em_eusart.o
 .data          0x00000000        0x0 ./gecko_sdk_4.2.3/platform/emlib/src/em_eusart.o
 .bss           0x00000000        0x0 ./gecko_sdk_4.2.3/platform/emlib/src/em_eusart.o
 .text.EUSART_Rx
                0x00000000       0x28 ./gecko_sdk_4.2.3/platform/emlib/src/em_eusart.o
 .text.EUSART_RxExt
                0x00000000        0xc ./gecko_sdk_4.2.3/platform/emlib/src/em_eusart.o
 .text.EUSART_TxExt
                0x00000000        0xa ./gecko_sdk_4.2.3/platform/emlib/src/em_eusart.o
 .text.EUSART_Spi_TxRx
                0x00000000       0x14 ./gecko_sdk_4.2.3/platform/emlib/src/em_eusart.o
 .text.EUSART_Dali_Tx
                0x00000000       0x64 ./gecko_sdk_4.2.3/platform/emlib/src/em_eusart.o
 .text.EUSART_Dali_Rx
                0x00000000       0x64 ./gecko_sdk_4.2.3/platform/emlib/src/em_eusart.o
 .text.EUSART_IrDAInit
                0x00000000       0xbc ./gecko_sdk_4.2.3/platform/emlib/src/em_eusart.o
 .text.EUSART_DaliInit
                0x00000000       0xbc ./gecko_sdk_4.2.3/platform/emlib/src/em_eusart.o
 .text.EUSART_SpiInit
                0x00000000      0x1fc ./gecko_sdk_4.2.3/platform/emlib/src/em_eusart.o
 .text.EUSART_BaudrateGet
                0x00000000       0xf0 ./gecko_sdk_4.2.3/platform/emlib/src/em_eusart.o
 .text.EUSART_RxBlock
                0x00000000       0x58 ./gecko_sdk_4.2.3/platform/emlib/src/em_eusart.o
 .text.EUSART_TxTristateSet
                0x00000000       0x54 ./gecko_sdk_4.2.3/platform/emlib/src/em_eusart.o
 .text.EUSART_PrsTriggerEnable
                0x00000000       0x8c ./gecko_sdk_4.2.3/platform/emlib/src/em_eusart.o
 .text          0x00000000        0x0 ./gecko_sdk_4.2.3/platform/emlib/src/em_gpio.o
 .data          0x00000000        0x0 ./gecko_sdk_4.2.3/platform/emlib/src/em_gpio.o
 .bss           0x00000000        0x0 ./gecko_sdk_4.2.3/platform/emlib/src/em_gpio.o
 .rodata.BUS_RegBitWrite.str1.1
                0x00000000       0x58 ./gecko_sdk_4.2.3/platform/emlib/src/em_gpio.o
 .text.BUS_RegBitWrite
                0x00000000       0x30 ./gecko_sdk_4.2.3/platform/emlib/src/em_gpio.o
 .text.GPIO_DbgLocationSet
                0x00000000        0x2 ./gecko_sdk_4.2.3/platform/emlib/src/em_gpio.o
 .text.GPIO_ExtIntConfig
                0x00000000       0xec ./gecko_sdk_4.2.3/platform/emlib/src/em_gpio.o
 .text.GPIO_PinModeGet
                0x00000000       0x58 ./gecko_sdk_4.2.3/platform/emlib/src/em_gpio.o
 .text.GPIO_EM4EnablePinWakeup
                0x00000000       0x7c ./gecko_sdk_4.2.3/platform/emlib/src/em_gpio.o
 .text.GPIO_EM4WUExtIntConfig
                0x00000000       0x6c ./gecko_sdk_4.2.3/platform/emlib/src/em_gpio.o
 .text          0x00000000        0x0 ./gecko_sdk_4.2.3/platform/emlib/src/em_i2c.o
 .data          0x00000000        0x0 ./gecko_sdk_4.2.3/platform/emlib/src/em_i2c.o
 .bss           0x00000000        0x0 ./gecko_sdk_4.2.3/platform/emlib/src/em_i2c.o
 .text.I2C_BusFreqGet
                0x00000000       0x4c ./gecko_sdk_4.2.3/platform/emlib/src/em_i2c.o
 .text.I2C_Reset
                0x00000000       0x30 ./gecko_sdk_4.2.3/platform/emlib/src/em_i2c.o
 .text          0x00000000        0x0 ./gecko_sdk_4.2.3/platform/emlib/src/em_iadc.o
 .data          0x00000000        0x0 ./gecko_sdk_4.2.3/platform/emlib/src/em_iadc.o
 .bss           0x00000000        0x0 ./gecko_sdk_4.2.3/platform/emlib/src/em_iadc.o
 .text.IADC_updateSingleInput
                0x00000000       0x58 ./gecko_sdk_4.2.3/platform/emlib/src/em_iadc.o
 .text.IADC_initSingle
                0x00000000       0xa0 ./gecko_sdk_4.2.3/platform/emlib/src/em_iadc.o
 .text.IADC_setScanMask
                0x00000000       0x54 ./gecko_sdk_4.2.3/platform/emlib/src/em_iadc.o
 .text.IADC_updateScanEntry
                0x00000000       0x7c ./gecko_sdk_4.2.3/platform/emlib/src/em_iadc.o
 .text.IADC_reset
                0x00000000       0xd4 ./gecko_sdk_4.2.3/platform/emlib/src/em_iadc.o
 .text.IADC_pullSingleFifoResult
                0x00000000       0x10 ./gecko_sdk_4.2.3/platform/emlib/src/em_iadc.o
 .text.IADC_readSingleResult
                0x00000000       0x10 ./gecko_sdk_4.2.3/platform/emlib/src/em_iadc.o
 .text.IADC_readScanResult
                0x00000000       0x14 ./gecko_sdk_4.2.3/platform/emlib/src/em_iadc.o
 .text          0x00000000        0x0 ./gecko_sdk_4.2.3/platform/emlib/src/em_ldma.o
 .data          0x00000000        0x0 ./gecko_sdk_4.2.3/platform/emlib/src/em_ldma.o
 .bss           0x00000000        0x0 ./gecko_sdk_4.2.3/platform/emlib/src/em_ldma.o
 .text.LDMA_TransferRemainingCount
                0x00000000       0x50 ./gecko_sdk_4.2.3/platform/emlib/src/em_ldma.o
 .text          0x00000000        0x0 ./gecko_sdk_4.2.3/platform/emlib/src/em_msc.o
 .data          0x00000000        0x0 ./gecko_sdk_4.2.3/platform/emlib/src/em_msc.o
 .bss           0x00000000        0x0 ./gecko_sdk_4.2.3/platform/emlib/src/em_msc.o
 .ram           0x00000000      0x1e8 ./gecko_sdk_4.2.3/platform/emlib/src/em_msc.o
 .rodata.str1.1
                0x00000000       0x58 ./gecko_sdk_4.2.3/platform/emlib/src/em_msc.o
 .text.MSC_Init
                0x00000000       0x20 ./gecko_sdk_4.2.3/platform/emlib/src/em_msc.o
 .text.MSC_Deinit
                0x00000000       0x24 ./gecko_sdk_4.2.3/platform/emlib/src/em_msc.o
 .text.MSC_ExecConfigSet
                0x00000000       0x18 ./gecko_sdk_4.2.3/platform/emlib/src/em_msc.o
 .text.MSC_WriteWordDma
                0x00000000       0xf0 ./gecko_sdk_4.2.3/platform/emlib/src/em_msc.o
 .text.MSC_EccConfigSet
                0x00000000       0x7c ./gecko_sdk_4.2.3/platform/emlib/src/em_msc.o
 .text.MSC_DmemPortMapSet
                0x00000000       0x80 ./gecko_sdk_4.2.3/platform/emlib/src/em_msc.o
 .text.MSC_PortSetPriority
                0x00000000       0x38 ./gecko_sdk_4.2.3/platform/emlib/src/em_msc.o
 .text.MSC_PortGetCurrentPriority
                0x00000000       0x10 ./gecko_sdk_4.2.3/platform/emlib/src/em_msc.o
 .debug_info    0x00000000     0x3736 ./gecko_sdk_4.2.3/platform/emlib/src/em_msc.o
 .debug_abbrev  0x00000000      0x364 ./gecko_sdk_4.2.3/platform/emlib/src/em_msc.o
 .debug_loc     0x00000000      0xa37 ./gecko_sdk_4.2.3/platform/emlib/src/em_msc.o
 .debug_aranges
                0x00000000       0x80 ./gecko_sdk_4.2.3/platform/emlib/src/em_msc.o
 .debug_ranges  0x00000000      0x110 ./gecko_sdk_4.2.3/platform/emlib/src/em_msc.o
 .debug_line    0x00000000      0xa63 ./gecko_sdk_4.2.3/platform/emlib/src/em_msc.o
 .debug_str     0x00000000     0x1e3b ./gecko_sdk_4.2.3/platform/emlib/src/em_msc.o
 .comment       0x00000000       0x4a ./gecko_sdk_4.2.3/platform/emlib/src/em_msc.o
 .debug_frame   0x00000000      0x174 ./gecko_sdk_4.2.3/platform/emlib/src/em_msc.o
 .ARM.attributes
                0x00000000       0x3a ./gecko_sdk_4.2.3/platform/emlib/src/em_msc.o
 .text          0x00000000        0x0 ./gecko_sdk_4.2.3/platform/emlib/src/em_system.o
 .data          0x00000000        0x0 ./gecko_sdk_4.2.3/platform/emlib/src/em_system.o
 .bss           0x00000000        0x0 ./gecko_sdk_4.2.3/platform/emlib/src/em_system.o
 .text.SYSTEM_GetCalibrationValue
                0x00000000       0x30 ./gecko_sdk_4.2.3/platform/emlib/src/em_system.o
 .text.SYSTEM_GetSecurityCapability
                0x00000000       0x28 ./gecko_sdk_4.2.3/platform/emlib/src/em_system.o
 .rodata.CSWTCH.5
                0x00000000        0x3 ./gecko_sdk_4.2.3/platform/emlib/src/em_system.o
 .text          0x00000000        0x0 ./gecko_sdk_4.2.3/platform/emlib/src/em_timer.o
 .data          0x00000000        0x0 ./gecko_sdk_4.2.3/platform/emlib/src/em_timer.o
 .bss           0x00000000        0x0 ./gecko_sdk_4.2.3/platform/emlib/src/em_timer.o
 .text.TIMER_Valid
                0x00000000       0x34 ./gecko_sdk_4.2.3/platform/emlib/src/em_timer.o
 .rodata.timerPrsConfig.str1.1
                0x00000000       0x5a ./gecko_sdk_4.2.3/platform/emlib/src/em_timer.o
 .text.timerPrsConfig
                0x00000000       0x7c ./gecko_sdk_4.2.3/platform/emlib/src/em_timer.o
 .text.TIMER_SyncWait
                0x00000000        0xe ./gecko_sdk_4.2.3/platform/emlib/src/em_timer.o
 .text.TIMER_Init
                0x00000000       0xc8 ./gecko_sdk_4.2.3/platform/emlib/src/em_timer.o
 .text.TIMER_InitCC
                0x00000000       0xc0 ./gecko_sdk_4.2.3/platform/emlib/src/em_timer.o
 .text.TIMER_Reset
                0x00000000       0xa0 ./gecko_sdk_4.2.3/platform/emlib/src/em_timer.o
 .rodata.TIMER_InitDTI.str1.1
                0x00000000       0x5a ./gecko_sdk_4.2.3/platform/emlib/src/em_timer.o
 .text.TIMER_InitDTI
                0x00000000      0x180 ./gecko_sdk_4.2.3/platform/emlib/src/em_timer.o
 .debug_info    0x00000000     0x2ef7 ./gecko_sdk_4.2.3/platform/emlib/src/em_timer.o
 .debug_abbrev  0x00000000      0x347 ./gecko_sdk_4.2.3/platform/emlib/src/em_timer.o
 .debug_loc     0x00000000      0x610 ./gecko_sdk_4.2.3/platform/emlib/src/em_timer.o
 .debug_aranges
                0x00000000       0x50 ./gecko_sdk_4.2.3/platform/emlib/src/em_timer.o
 .debug_ranges  0x00000000       0x78 ./gecko_sdk_4.2.3/platform/emlib/src/em_timer.o
 .debug_line    0x00000000      0x8d8 ./gecko_sdk_4.2.3/platform/emlib/src/em_timer.o
 .debug_str     0x00000000     0x3344 ./gecko_sdk_4.2.3/platform/emlib/src/em_timer.o
 .comment       0x00000000       0x4a ./gecko_sdk_4.2.3/platform/emlib/src/em_timer.o
 .debug_frame   0x00000000       0xcc ./gecko_sdk_4.2.3/platform/emlib/src/em_timer.o
 .ARM.attributes
                0x00000000       0x3a ./gecko_sdk_4.2.3/platform/emlib/src/em_timer.o
 .text          0x00000000        0x0 ./gecko_sdk_4.2.3/platform/emlib/src/em_usart.o
 .data          0x00000000        0x0 ./gecko_sdk_4.2.3/platform/emlib/src/em_usart.o
 .bss           0x00000000        0x0 ./gecko_sdk_4.2.3/platform/emlib/src/em_usart.o
 .text.USART_BaudrateCalc
                0x00000000       0x7c ./gecko_sdk_4.2.3/platform/emlib/src/em_usart.o
 .text.USART_BaudrateGet
                0x00000000       0x22 ./gecko_sdk_4.2.3/platform/emlib/src/em_usart.o
 .text.USART_BaudrateSyncSet
                0x00000000       0x48 ./gecko_sdk_4.2.3/platform/emlib/src/em_usart.o
 .text.USART_InitPrsTrigger
                0x00000000       0x38 ./gecko_sdk_4.2.3/platform/emlib/src/em_usart.o
 .text.USARTn_InitIrDA
                0x00000000       0x54 ./gecko_sdk_4.2.3/platform/emlib/src/em_usart.o
 .text.USART_InitSync
                0x00000000       0xc0 ./gecko_sdk_4.2.3/platform/emlib/src/em_usart.o
 .text.USART_InitI2s
                0x00000000       0x70 ./gecko_sdk_4.2.3/platform/emlib/src/em_usart.o
 .text.USART_Rx
                0x00000000        0xc ./gecko_sdk_4.2.3/platform/emlib/src/em_usart.o
 .text.USART_RxDouble
                0x00000000        0xc ./gecko_sdk_4.2.3/platform/emlib/src/em_usart.o
 .text.USART_RxDoubleExt
                0x00000000        0xa ./gecko_sdk_4.2.3/platform/emlib/src/em_usart.o
 .text.USART_RxExt
                0x00000000        0xc ./gecko_sdk_4.2.3/platform/emlib/src/em_usart.o
 .text.USART_SpiTransfer
                0x00000000       0x14 ./gecko_sdk_4.2.3/platform/emlib/src/em_usart.o
 .text.USART_TxDouble
                0x00000000        0xa ./gecko_sdk_4.2.3/platform/emlib/src/em_usart.o
 .text.USART_TxDoubleExt
                0x00000000        0xa ./gecko_sdk_4.2.3/platform/emlib/src/em_usart.o
 .text.USART_TxExt
                0x00000000        0xa ./gecko_sdk_4.2.3/platform/emlib/src/em_usart.o
 .text          0x00000000        0x0 ./gecko_sdk_4.2.3/platform/peripheral/src/peripheral_sysrtc.o
 .data          0x00000000        0x0 ./gecko_sdk_4.2.3/platform/peripheral/src/peripheral_sysrtc.o
 .bss           0x00000000        0x0 ./gecko_sdk_4.2.3/platform/peripheral/src/peripheral_sysrtc.o
 .text.sl_sysrtc_reset
                0x00000000        0xc ./gecko_sdk_4.2.3/platform/peripheral/src/peripheral_sysrtc.o
 .text.sl_sysrtc_get_group_enabled_interrupts
                0x00000000       0x24 ./gecko_sdk_4.2.3/platform/peripheral/src/peripheral_sysrtc.o
 .text.sl_sysrtc_set_group_interrupts
                0x00000000       0x1c ./gecko_sdk_4.2.3/platform/peripheral/src/peripheral_sysrtc.o
 .text.sl_sysrtc_get_group_capture_channel_value
                0x00000000       0x20 ./gecko_sdk_4.2.3/platform/peripheral/src/peripheral_sysrtc.o
 .text          0x00000000        0x0 ./gecko_sdk_4.2.3/platform/service/device_init/src/sl_device_init_dcdc_s2.o
 .data          0x00000000        0x0 ./gecko_sdk_4.2.3/platform/service/device_init/src/sl_device_init_dcdc_s2.o
 .bss           0x00000000        0x0 ./gecko_sdk_4.2.3/platform/service/device_init/src/sl_device_init_dcdc_s2.o
 .text          0x00000000        0x0 ./gecko_sdk_4.2.3/platform/service/device_init/src/sl_device_init_emu_s2.o
 .data          0x00000000        0x0 ./gecko_sdk_4.2.3/platform/service/device_init/src/sl_device_init_emu_s2.o
 .bss           0x00000000        0x0 ./gecko_sdk_4.2.3/platform/service/device_init/src/sl_device_init_emu_s2.o
 .text          0x00000000        0x0 ./gecko_sdk_4.2.3/platform/service/device_init/src/sl_device_init_hfxo_s2.o
 .data          0x00000000        0x0 ./gecko_sdk_4.2.3/platform/service/device_init/src/sl_device_init_hfxo_s2.o
 .bss           0x00000000        0x0 ./gecko_sdk_4.2.3/platform/service/device_init/src/sl_device_init_hfxo_s2.o
 .text          0x00000000        0x0 ./gecko_sdk_4.2.3/platform/service/device_init/src/sl_device_init_lfxo_s2.o
 .data          0x00000000        0x0 ./gecko_sdk_4.2.3/platform/service/device_init/src/sl_device_init_lfxo_s2.o
 .bss           0x00000000        0x0 ./gecko_sdk_4.2.3/platform/service/device_init/src/sl_device_init_lfxo_s2.o
 .text          0x00000000        0x0 ./gecko_sdk_4.2.3/platform/service/device_init/src/sl_device_init_nvic.o
 .data          0x00000000        0x0 ./gecko_sdk_4.2.3/platform/service/device_init/src/sl_device_init_nvic.o
 .bss           0x00000000        0x0 ./gecko_sdk_4.2.3/platform/service/device_init/src/sl_device_init_nvic.o
 .text          0x00000000        0x0 ./gecko_sdk_4.2.3/platform/service/iostream/src/sl_iostream.o
 .data          0x00000000        0x0 ./gecko_sdk_4.2.3/platform/service/iostream/src/sl_iostream.o
 .bss           0x00000000        0x0 ./gecko_sdk_4.2.3/platform/service/iostream/src/sl_iostream.o
 .text.sl_iostream_putchar
                0x00000000       0x16 ./gecko_sdk_4.2.3/platform/service/iostream/src/sl_iostream.o
 .text.sl_iostream_vprintf
                0x00000000       0x42 ./gecko_sdk_4.2.3/platform/service/iostream/src/sl_iostream.o
 .text.sl_iostream_printf
                0x00000000       0x1a ./gecko_sdk_4.2.3/platform/service/iostream/src/sl_iostream.o
 .bss.sl_iostream_null
                0x00000000        0xc ./gecko_sdk_4.2.3/platform/service/iostream/src/sl_iostream.o
 .text          0x00000000        0x0 ./gecko_sdk_4.2.3/platform/service/iostream/src/sl_iostream_eusart.o
 .data          0x00000000        0x0 ./gecko_sdk_4.2.3/platform/service/iostream/src/sl_iostream_eusart.o
 .bss           0x00000000        0x0 ./gecko_sdk_4.2.3/platform/service/iostream/src/sl_iostream_eusart.o
 .text          0x00000000        0x0 ./gecko_sdk_4.2.3/platform/service/iostream/src/sl_iostream_retarget_stdio.o
 .data          0x00000000        0x0 ./gecko_sdk_4.2.3/platform/service/iostream/src/sl_iostream_retarget_stdio.o
 .bss           0x00000000        0x0 ./gecko_sdk_4.2.3/platform/service/iostream/src/sl_iostream_retarget_stdio.o
 .text          0x00000000        0x0 ./gecko_sdk_4.2.3/platform/service/iostream/src/sl_iostream_stdlib_config.o
 .data          0x00000000        0x0 ./gecko_sdk_4.2.3/platform/service/iostream/src/sl_iostream_stdlib_config.o
 .bss           0x00000000        0x0 ./gecko_sdk_4.2.3/platform/service/iostream/src/sl_iostream_stdlib_config.o
 .text          0x00000000        0x0 ./gecko_sdk_4.2.3/platform/service/iostream/src/sl_iostream_uart.o
 .data          0x00000000        0x0 ./gecko_sdk_4.2.3/platform/service/iostream/src/sl_iostream_uart.o
 .bss           0x00000000        0x0 ./gecko_sdk_4.2.3/platform/service/iostream/src/sl_iostream_uart.o
 .text          0x00000000        0x0 ./gecko_sdk_4.2.3/platform/service/iostream/src/sl_iostream_usart.o
 .data          0x00000000        0x0 ./gecko_sdk_4.2.3/platform/service/iostream/src/sl_iostream_usart.o
 .bss           0x00000000        0x0 ./gecko_sdk_4.2.3/platform/service/iostream/src/sl_iostream_usart.o
 .text          0x00000000        0x0 ./gecko_sdk_4.2.3/platform/service/sleeptimer/src/sl_sleeptimer.o
 .data          0x00000000        0x0 ./gecko_sdk_4.2.3/platform/service/sleeptimer/src/sl_sleeptimer.o
 .bss           0x00000000        0x0 ./gecko_sdk_4.2.3/platform/service/sleeptimer/src/sl_sleeptimer.o
 .text.sl_sleeptimer_stop_timer
                0x00000000       0x50 ./gecko_sdk_4.2.3/platform/service/sleeptimer/src/sl_sleeptimer.o
 .text.sl_sleeptimer_restart_timer
                0x00000000       0x38 ./gecko_sdk_4.2.3/platform/service/sleeptimer/src/sl_sleeptimer.o
 .text.sl_sleeptimer_restart_periodic_timer
                0x00000000       0x38 ./gecko_sdk_4.2.3/platform/service/sleeptimer/src/sl_sleeptimer.o
 .text.sl_sleeptimer_start_periodic_timer
                0x00000000       0x4a ./gecko_sdk_4.2.3/platform/service/sleeptimer/src/sl_sleeptimer.o
 .text.sl_sleeptimer_get_timer_time_remaining
                0x00000000       0x70 ./gecko_sdk_4.2.3/platform/service/sleeptimer/src/sl_sleeptimer.o
 .text.sl_sleeptimer_get_remaining_time_of_first_timer
                0x00000000       0x64 ./gecko_sdk_4.2.3/platform/service/sleeptimer/src/sl_sleeptimer.o
 .text.sl_sleeptimer_get_tick_count
                0x00000000       0x18 ./gecko_sdk_4.2.3/platform/service/sleeptimer/src/sl_sleeptimer.o
 .text.sli_sleeptimer_is_power_manager_timer_next_to_expire
                0x00000000       0x28 ./gecko_sdk_4.2.3/platform/service/sleeptimer/src/sl_sleeptimer.o
 .text.sl_sleeptimer_get_timer_frequency
                0x00000000        0xc ./gecko_sdk_4.2.3/platform/service/sleeptimer/src/sl_sleeptimer.o
 .text.sl_sleeptimer_restart_periodic_timer_ms
                0x00000000       0x68 ./gecko_sdk_4.2.3/platform/service/sleeptimer/src/sl_sleeptimer.o
 .text.sl_sleeptimer_get_max_ms32_conversion
                0x00000000        0xc ./gecko_sdk_4.2.3/platform/service/sleeptimer/src/sl_sleeptimer.o
 .text.sl_sleeptimer_tick_to_ms
                0x00000000       0x44 ./gecko_sdk_4.2.3/platform/service/sleeptimer/src/sl_sleeptimer.o
 .text.sl_sleeptimer_tick64_to_ms
                0x00000000       0x68 ./gecko_sdk_4.2.3/platform/service/sleeptimer/src/sl_sleeptimer.o
 .text.sl_sleeptimer_is_power_manager_early_restore_timer_latest_to_expire
                0x00000000       0x18 ./gecko_sdk_4.2.3/platform/service/sleeptimer/src/sl_sleeptimer.o
 .text.sl_sleeptimer_get_clock_accuracy
                0x00000000        0x4 ./gecko_sdk_4.2.3/platform/service/sleeptimer/src/sl_sleeptimer.o
 .text          0x00000000        0x0 ./gecko_sdk_4.2.3/platform/service/sleeptimer/src/sl_sleeptimer_hal_burtc.o
 .data          0x00000000        0x0 ./gecko_sdk_4.2.3/platform/service/sleeptimer/src/sl_sleeptimer_hal_burtc.o
 .bss           0x00000000        0x0 ./gecko_sdk_4.2.3/platform/service/sleeptimer/src/sl_sleeptimer_hal_burtc.o
 .debug_info    0x00000000       0x6b ./gecko_sdk_4.2.3/platform/service/sleeptimer/src/sl_sleeptimer_hal_burtc.o
 .debug_abbrev  0x00000000       0x26 ./gecko_sdk_4.2.3/platform/service/sleeptimer/src/sl_sleeptimer_hal_burtc.o
 .debug_aranges
                0x00000000       0x18 ./gecko_sdk_4.2.3/platform/service/sleeptimer/src/sl_sleeptimer_hal_burtc.o
 .debug_line    0x00000000       0x1d ./gecko_sdk_4.2.3/platform/service/sleeptimer/src/sl_sleeptimer_hal_burtc.o
 .debug_str     0x00000000      0x23e ./gecko_sdk_4.2.3/platform/service/sleeptimer/src/sl_sleeptimer_hal_burtc.o
 .comment       0x00000000       0x4a ./gecko_sdk_4.2.3/platform/service/sleeptimer/src/sl_sleeptimer_hal_burtc.o
 .ARM.attributes
                0x00000000       0x3a ./gecko_sdk_4.2.3/platform/service/sleeptimer/src/sl_sleeptimer_hal_burtc.o
 .text          0x00000000        0x0 ./gecko_sdk_4.2.3/platform/service/sleeptimer/src/sl_sleeptimer_hal_sysrtc.o
 .data          0x00000000        0x0 ./gecko_sdk_4.2.3/platform/service/sleeptimer/src/sl_sleeptimer_hal_sysrtc.o
 .bss           0x00000000        0x0 ./gecko_sdk_4.2.3/platform/service/sleeptimer/src/sl_sleeptimer_hal_sysrtc.o
 .text.sleeptimer_hal_get_clock_accuracy
                0x00000000        0x6 ./gecko_sdk_4.2.3/platform/service/sleeptimer/src/sl_sleeptimer_hal_sysrtc.o
 .text          0x00000000        0x0 ./gecko_sdk_4.2.3/platform/service/sleeptimer/src/sl_sleeptimer_hal_timer.o
 .data          0x00000000        0x0 ./gecko_sdk_4.2.3/platform/service/sleeptimer/src/sl_sleeptimer_hal_timer.o
 .bss           0x00000000        0x0 ./gecko_sdk_4.2.3/platform/service/sleeptimer/src/sl_sleeptimer_hal_timer.o
 .debug_info    0x00000000       0x6b ./gecko_sdk_4.2.3/platform/service/sleeptimer/src/sl_sleeptimer_hal_timer.o
 .debug_abbrev  0x00000000       0x26 ./gecko_sdk_4.2.3/platform/service/sleeptimer/src/sl_sleeptimer_hal_timer.o
 .debug_aranges
                0x00000000       0x18 ./gecko_sdk_4.2.3/platform/service/sleeptimer/src/sl_sleeptimer_hal_timer.o
 .debug_line    0x00000000       0x1d ./gecko_sdk_4.2.3/platform/service/sleeptimer/src/sl_sleeptimer_hal_timer.o
 .debug_str     0x00000000      0x23e ./gecko_sdk_4.2.3/platform/service/sleeptimer/src/sl_sleeptimer_hal_timer.o
 .comment       0x00000000       0x4a ./gecko_sdk_4.2.3/platform/service/sleeptimer/src/sl_sleeptimer_hal_timer.o
 .ARM.attributes
                0x00000000       0x3a ./gecko_sdk_4.2.3/platform/service/sleeptimer/src/sl_sleeptimer_hal_timer.o
 .text          0x00000000        0x0 ./gecko_sdk_4.2.3/platform/service/system/src/sl_system_init.o
 .data          0x00000000        0x0 ./gecko_sdk_4.2.3/platform/service/system/src/sl_system_init.o
 .bss           0x00000000        0x0 ./gecko_sdk_4.2.3/platform/service/system/src/sl_system_init.o
 .text          0x00000000        0x0 ./gecko_sdk_4.2.3/platform/service/system/src/sl_system_process_action.o
 .data          0x00000000        0x0 ./gecko_sdk_4.2.3/platform/service/system/src/sl_system_process_action.o
 .bss           0x00000000        0x0 ./gecko_sdk_4.2.3/platform/service/system/src/sl_system_process_action.o
 .text          0x00000000        0x0 ./gecko_sdk_4.2.3/platform/service/udelay/src/sl_udelay.o
 .data          0x00000000        0x0 ./gecko_sdk_4.2.3/platform/service/udelay/src/sl_udelay.o
 .bss           0x00000000        0x0 ./gecko_sdk_4.2.3/platform/service/udelay/src/sl_udelay.o
 .data          0x00000000        0x0 ./gecko_sdk_4.2.3/platform/service/udelay/src/sl_udelay_armv6m_gcc.o
 .bss           0x00000000        0x0 ./gecko_sdk_4.2.3/platform/service/udelay/src/sl_udelay_armv6m_gcc.o
 .text          0x00000000      0x254 c:/siliconlabs/simplicitystudio/v5/developer/toolchains/gnu_arm/10.3_2021.10/bin/../lib/gcc/arm-none-eabi/10.3.1/thumb/v8-m.main+fp/hard\libgcc.a(_arm_muldf3.o)
 .data          0x00000000        0x0 c:/siliconlabs/simplicitystudio/v5/developer/toolchains/gnu_arm/10.3_2021.10/bin/../lib/gcc/arm-none-eabi/10.3.1/thumb/v8-m.main+fp/hard\libgcc.a(_arm_muldf3.o)
 .bss           0x00000000        0x0 c:/siliconlabs/simplicitystudio/v5/developer/toolchains/gnu_arm/10.3_2021.10/bin/../lib/gcc/arm-none-eabi/10.3.1/thumb/v8-m.main+fp/hard\libgcc.a(_arm_muldf3.o)
 .debug_frame   0x00000000       0x30 c:/siliconlabs/simplicitystudio/v5/developer/toolchains/gnu_arm/10.3_2021.10/bin/../lib/gcc/arm-none-eabi/10.3.1/thumb/v8-m.main+fp/hard\libgcc.a(_arm_muldf3.o)
 .ARM.attributes
                0x00000000       0x22 c:/siliconlabs/simplicitystudio/v5/developer/toolchains/gnu_arm/10.3_2021.10/bin/../lib/gcc/arm-none-eabi/10.3.1/thumb/v8-m.main+fp/hard\libgcc.a(_arm_muldf3.o)
 .data          0x00000000        0x0 c:/siliconlabs/simplicitystudio/v5/developer/toolchains/gnu_arm/10.3_2021.10/bin/../lib/gcc/arm-none-eabi/10.3.1/thumb/v8-m.main+fp/hard\libgcc.a(_arm_addsubdf3.o)
 .bss           0x00000000        0x0 c:/siliconlabs/simplicitystudio/v5/developer/toolchains/gnu_arm/10.3_2021.10/bin/../lib/gcc/arm-none-eabi/10.3.1/thumb/v8-m.main+fp/hard\libgcc.a(_arm_addsubdf3.o)
 .data          0x00000000        0x0 c:/siliconlabs/simplicitystudio/v5/developer/toolchains/gnu_arm/10.3_2021.10/bin/../lib/gcc/arm-none-eabi/10.3.1/thumb/v8-m.main+fp/hard\libgcc.a(_arm_muldivdf3.o)
 .bss           0x00000000        0x0 c:/siliconlabs/simplicitystudio/v5/developer/toolchains/gnu_arm/10.3_2021.10/bin/../lib/gcc/arm-none-eabi/10.3.1/thumb/v8-m.main+fp/hard\libgcc.a(_arm_muldivdf3.o)
 .data          0x00000000        0x0 c:/siliconlabs/simplicitystudio/v5/developer/toolchains/gnu_arm/10.3_2021.10/bin/../lib/gcc/arm-none-eabi/10.3.1/thumb/v8-m.main+fp/hard\libgcc.a(_arm_cmpdf2.o)
 .bss           0x00000000        0x0 c:/siliconlabs/simplicitystudio/v5/developer/toolchains/gnu_arm/10.3_2021.10/bin/../lib/gcc/arm-none-eabi/10.3.1/thumb/v8-m.main+fp/hard\libgcc.a(_arm_cmpdf2.o)
 .data          0x00000000        0x0 c:/siliconlabs/simplicitystudio/v5/developer/toolchains/gnu_arm/10.3_2021.10/bin/../lib/gcc/arm-none-eabi/10.3.1/thumb/v8-m.main+fp/hard\libgcc.a(_arm_fixdfsi.o)
 .bss           0x00000000        0x0 c:/siliconlabs/simplicitystudio/v5/developer/toolchains/gnu_arm/10.3_2021.10/bin/../lib/gcc/arm-none-eabi/10.3.1/thumb/v8-m.main+fp/hard\libgcc.a(_arm_fixdfsi.o)
 .data          0x00000000        0x0 c:/siliconlabs/simplicitystudio/v5/developer/toolchains/gnu_arm/10.3_2021.10/bin/../lib/gcc/arm-none-eabi/10.3.1/thumb/v8-m.main+fp/hard\libgcc.a(_arm_truncdfsf2.o)
 .bss           0x00000000        0x0 c:/siliconlabs/simplicitystudio/v5/developer/toolchains/gnu_arm/10.3_2021.10/bin/../lib/gcc/arm-none-eabi/10.3.1/thumb/v8-m.main+fp/hard\libgcc.a(_arm_truncdfsf2.o)
 .data          0x00000000        0x0 c:/siliconlabs/simplicitystudio/v5/developer/toolchains/gnu_arm/10.3_2021.10/bin/../lib/gcc/arm-none-eabi/10.3.1/thumb/v8-m.main+fp/hard\libgcc.a(_aeabi_ldivmod.o)
 .bss           0x00000000        0x0 c:/siliconlabs/simplicitystudio/v5/developer/toolchains/gnu_arm/10.3_2021.10/bin/../lib/gcc/arm-none-eabi/10.3.1/thumb/v8-m.main+fp/hard\libgcc.a(_aeabi_ldivmod.o)
 .data          0x00000000        0x0 c:/siliconlabs/simplicitystudio/v5/developer/toolchains/gnu_arm/10.3_2021.10/bin/../lib/gcc/arm-none-eabi/10.3.1/thumb/v8-m.main+fp/hard\libgcc.a(_aeabi_uldivmod.o)
 .bss           0x00000000        0x0 c:/siliconlabs/simplicitystudio/v5/developer/toolchains/gnu_arm/10.3_2021.10/bin/../lib/gcc/arm-none-eabi/10.3.1/thumb/v8-m.main+fp/hard\libgcc.a(_aeabi_uldivmod.o)
 .data          0x00000000        0x0 c:/siliconlabs/simplicitystudio/v5/developer/toolchains/gnu_arm/10.3_2021.10/bin/../lib/gcc/arm-none-eabi/10.3.1/thumb/v8-m.main+fp/hard\libgcc.a(_udivmoddi4.o)
 .bss           0x00000000        0x0 c:/siliconlabs/simplicitystudio/v5/developer/toolchains/gnu_arm/10.3_2021.10/bin/../lib/gcc/arm-none-eabi/10.3.1/thumb/v8-m.main+fp/hard\libgcc.a(_udivmoddi4.o)
 .ARM.extab     0x00000000        0x0 c:/siliconlabs/simplicitystudio/v5/developer/toolchains/gnu_arm/10.3_2021.10/bin/../lib/gcc/arm-none-eabi/10.3.1/thumb/v8-m.main+fp/hard\libgcc.a(_udivmoddi4.o)
 .data          0x00000000        0x0 c:/siliconlabs/simplicitystudio/v5/developer/toolchains/gnu_arm/10.3_2021.10/bin/../lib/gcc/arm-none-eabi/10.3.1/thumb/v8-m.main+fp/hard\libgcc.a(_dvmd_tls.o)
 .bss           0x00000000        0x0 c:/siliconlabs/simplicitystudio/v5/developer/toolchains/gnu_arm/10.3_2021.10/bin/../lib/gcc/arm-none-eabi/10.3.1/thumb/v8-m.main+fp/hard\libgcc.a(_dvmd_tls.o)
 .text          0x00000000        0x0 c:/siliconlabs/simplicitystudio/v5/developer/toolchains/gnu_arm/10.3_2021.10/bin/../lib/gcc/arm-none-eabi/10.3.1/../../../../arm-none-eabi/lib/thumb/v8-m.main+fp/hard\libc_nano.a(lib_a-ctype_.o)
 .data          0x00000000        0x0 c:/siliconlabs/simplicitystudio/v5/developer/toolchains/gnu_arm/10.3_2021.10/bin/../lib/gcc/arm-none-eabi/10.3.1/../../../../arm-none-eabi/lib/thumb/v8-m.main+fp/hard\libc_nano.a(lib_a-ctype_.o)
 .bss           0x00000000        0x0 c:/siliconlabs/simplicitystudio/v5/developer/toolchains/gnu_arm/10.3_2021.10/bin/../lib/gcc/arm-none-eabi/10.3.1/../../../../arm-none-eabi/lib/thumb/v8-m.main+fp/hard\libc_nano.a(lib_a-ctype_.o)
 .text          0x00000000        0x0 c:/siliconlabs/simplicitystudio/v5/developer/toolchains/gnu_arm/10.3_2021.10/bin/../lib/gcc/arm-none-eabi/10.3.1/../../../../arm-none-eabi/lib/thumb/v8-m.main+fp/hard\libc_nano.a(lib_a-exit.o)
 .data          0x00000000        0x0 c:/siliconlabs/simplicitystudio/v5/developer/toolchains/gnu_arm/10.3_2021.10/bin/../lib/gcc/arm-none-eabi/10.3.1/../../../../arm-none-eabi/lib/thumb/v8-m.main+fp/hard\libc_nano.a(lib_a-exit.o)
 .bss           0x00000000        0x0 c:/siliconlabs/simplicitystudio/v5/developer/toolchains/gnu_arm/10.3_2021.10/bin/../lib/gcc/arm-none-eabi/10.3.1/../../../../arm-none-eabi/lib/thumb/v8-m.main+fp/hard\libc_nano.a(lib_a-exit.o)
 .text          0x00000000        0x0 c:/siliconlabs/simplicitystudio/v5/developer/toolchains/gnu_arm/10.3_2021.10/bin/../lib/gcc/arm-none-eabi/10.3.1/../../../../arm-none-eabi/lib/thumb/v8-m.main+fp/hard\libc_nano.a(lib_a-impure.o)
 .data          0x00000000        0x0 c:/siliconlabs/simplicitystudio/v5/developer/toolchains/gnu_arm/10.3_2021.10/bin/../lib/gcc/arm-none-eabi/10.3.1/../../../../arm-none-eabi/lib/thumb/v8-m.main+fp/hard\libc_nano.a(lib_a-impure.o)
 .bss           0x00000000        0x0 c:/siliconlabs/simplicitystudio/v5/developer/toolchains/gnu_arm/10.3_2021.10/bin/../lib/gcc/arm-none-eabi/10.3.1/../../../../arm-none-eabi/lib/thumb/v8-m.main+fp/hard\libc_nano.a(lib_a-impure.o)
 .text          0x00000000        0x0 c:/siliconlabs/simplicitystudio/v5/developer/toolchains/gnu_arm/10.3_2021.10/bin/../lib/gcc/arm-none-eabi/10.3.1/../../../../arm-none-eabi/lib/thumb/v8-m.main+fp/hard\libc_nano.a(lib_a-init.o)
 .data          0x00000000        0x0 c:/siliconlabs/simplicitystudio/v5/developer/toolchains/gnu_arm/10.3_2021.10/bin/../lib/gcc/arm-none-eabi/10.3.1/../../../../arm-none-eabi/lib/thumb/v8-m.main+fp/hard\libc_nano.a(lib_a-init.o)
 .bss           0x00000000        0x0 c:/siliconlabs/simplicitystudio/v5/developer/toolchains/gnu_arm/10.3_2021.10/bin/../lib/gcc/arm-none-eabi/10.3.1/../../../../arm-none-eabi/lib/thumb/v8-m.main+fp/hard\libc_nano.a(lib_a-init.o)
 .text          0x00000000        0x0 c:/siliconlabs/simplicitystudio/v5/developer/toolchains/gnu_arm/10.3_2021.10/bin/../lib/gcc/arm-none-eabi/10.3.1/../../../../arm-none-eabi/lib/thumb/v8-m.main+fp/hard\libc_nano.a(lib_a-memcpy-stub.o)
 .data          0x00000000        0x0 c:/siliconlabs/simplicitystudio/v5/developer/toolchains/gnu_arm/10.3_2021.10/bin/../lib/gcc/arm-none-eabi/10.3.1/../../../../arm-none-eabi/lib/thumb/v8-m.main+fp/hard\libc_nano.a(lib_a-memcpy-stub.o)
 .bss           0x00000000        0x0 c:/siliconlabs/simplicitystudio/v5/developer/toolchains/gnu_arm/10.3_2021.10/bin/../lib/gcc/arm-none-eabi/10.3.1/../../../../arm-none-eabi/lib/thumb/v8-m.main+fp/hard\libc_nano.a(lib_a-memcpy-stub.o)
 .text          0x00000000        0x0 c:/siliconlabs/simplicitystudio/v5/developer/toolchains/gnu_arm/10.3_2021.10/bin/../lib/gcc/arm-none-eabi/10.3.1/../../../../arm-none-eabi/lib/thumb/v8-m.main+fp/hard\libc_nano.a(lib_a-memset.o)
 .data          0x00000000        0x0 c:/siliconlabs/simplicitystudio/v5/developer/toolchains/gnu_arm/10.3_2021.10/bin/../lib/gcc/arm-none-eabi/10.3.1/../../../../arm-none-eabi/lib/thumb/v8-m.main+fp/hard\libc_nano.a(lib_a-memset.o)
 .bss           0x00000000        0x0 c:/siliconlabs/simplicitystudio/v5/developer/toolchains/gnu_arm/10.3_2021.10/bin/../lib/gcc/arm-none-eabi/10.3.1/../../../../arm-none-eabi/lib/thumb/v8-m.main+fp/hard\libc_nano.a(lib_a-memset.o)
 .text          0x00000000        0x0 c:/siliconlabs/simplicitystudio/v5/developer/toolchains/gnu_arm/10.3_2021.10/bin/../lib/gcc/arm-none-eabi/10.3.1/../../../../arm-none-eabi/lib/thumb/v8-m.main+fp/hard\libc_nano.a(lib_a-nano-vfprintf_float.o)
 .data          0x00000000        0x0 c:/siliconlabs/simplicitystudio/v5/developer/toolchains/gnu_arm/10.3_2021.10/bin/../lib/gcc/arm-none-eabi/10.3.1/../../../../arm-none-eabi/lib/thumb/v8-m.main+fp/hard\libc_nano.a(lib_a-nano-vfprintf_float.o)
 .bss           0x00000000        0x0 c:/siliconlabs/simplicitystudio/v5/developer/toolchains/gnu_arm/10.3_2021.10/bin/../lib/gcc/arm-none-eabi/10.3.1/../../../../arm-none-eabi/lib/thumb/v8-m.main+fp/hard\libc_nano.a(lib_a-nano-vfprintf_float.o)
 .text          0x00000000        0x0 c:/siliconlabs/simplicitystudio/v5/developer/toolchains/gnu_arm/10.3_2021.10/bin/../lib/gcc/arm-none-eabi/10.3.1/../../../../arm-none-eabi/lib/thumb/v8-m.main+fp/hard\libc_nano.a(lib_a-nano-vfprintf_i.o)
 .data          0x00000000        0x0 c:/siliconlabs/simplicitystudio/v5/developer/toolchains/gnu_arm/10.3_2021.10/bin/../lib/gcc/arm-none-eabi/10.3.1/../../../../arm-none-eabi/lib/thumb/v8-m.main+fp/hard\libc_nano.a(lib_a-nano-vfprintf_i.o)
 .bss           0x00000000        0x0 c:/siliconlabs/simplicitystudio/v5/developer/toolchains/gnu_arm/10.3_2021.10/bin/../lib/gcc/arm-none-eabi/10.3.1/../../../../arm-none-eabi/lib/thumb/v8-m.main+fp/hard\libc_nano.a(lib_a-nano-vfprintf_i.o)
 .text          0x00000000        0x0 c:/siliconlabs/simplicitystudio/v5/developer/toolchains/gnu_arm/10.3_2021.10/bin/../lib/gcc/arm-none-eabi/10.3.1/../../../../arm-none-eabi/lib/thumb/v8-m.main+fp/hard\libc_nano.a(lib_a-printf.o)
 .data          0x00000000        0x0 c:/siliconlabs/simplicitystudio/v5/developer/toolchains/gnu_arm/10.3_2021.10/bin/../lib/gcc/arm-none-eabi/10.3.1/../../../../arm-none-eabi/lib/thumb/v8-m.main+fp/hard\libc_nano.a(lib_a-printf.o)
 .bss           0x00000000        0x0 c:/siliconlabs/simplicitystudio/v5/developer/toolchains/gnu_arm/10.3_2021.10/bin/../lib/gcc/arm-none-eabi/10.3.1/../../../../arm-none-eabi/lib/thumb/v8-m.main+fp/hard\libc_nano.a(lib_a-printf.o)
 .text._printf_r
                0x00000000       0x28 c:/siliconlabs/simplicitystudio/v5/developer/toolchains/gnu_arm/10.3_2021.10/bin/../lib/gcc/arm-none-eabi/10.3.1/../../../../arm-none-eabi/lib/thumb/v8-m.main+fp/hard\libc_nano.a(lib_a-printf.o)
 .text          0x00000000        0x0 c:/siliconlabs/simplicitystudio/v5/developer/toolchains/gnu_arm/10.3_2021.10/bin/../lib/gcc/arm-none-eabi/10.3.1/../../../../arm-none-eabi/lib/thumb/v8-m.main+fp/hard\libc_nano.a(lib_a-setvbuf.o)
 .data          0x00000000        0x0 c:/siliconlabs/simplicitystudio/v5/developer/toolchains/gnu_arm/10.3_2021.10/bin/../lib/gcc/arm-none-eabi/10.3.1/../../../../arm-none-eabi/lib/thumb/v8-m.main+fp/hard\libc_nano.a(lib_a-setvbuf.o)
 .bss           0x00000000        0x0 c:/siliconlabs/simplicitystudio/v5/developer/toolchains/gnu_arm/10.3_2021.10/bin/../lib/gcc/arm-none-eabi/10.3.1/../../../../arm-none-eabi/lib/thumb/v8-m.main+fp/hard\libc_nano.a(lib_a-setvbuf.o)
 .text          0x00000000        0x0 c:/siliconlabs/simplicitystudio/v5/developer/toolchains/gnu_arm/10.3_2021.10/bin/../lib/gcc/arm-none-eabi/10.3.1/../../../../arm-none-eabi/lib/thumb/v8-m.main+fp/hard\libc_nano.a(lib_a-sprintf.o)
 .data          0x00000000        0x0 c:/siliconlabs/simplicitystudio/v5/developer/toolchains/gnu_arm/10.3_2021.10/bin/../lib/gcc/arm-none-eabi/10.3.1/../../../../arm-none-eabi/lib/thumb/v8-m.main+fp/hard\libc_nano.a(lib_a-sprintf.o)
 .bss           0x00000000        0x0 c:/siliconlabs/simplicitystudio/v5/developer/toolchains/gnu_arm/10.3_2021.10/bin/../lib/gcc/arm-none-eabi/10.3.1/../../../../arm-none-eabi/lib/thumb/v8-m.main+fp/hard\libc_nano.a(lib_a-sprintf.o)
 .text._sprintf_r
                0x00000000       0x38 c:/siliconlabs/simplicitystudio/v5/developer/toolchains/gnu_arm/10.3_2021.10/bin/../lib/gcc/arm-none-eabi/10.3.1/../../../../arm-none-eabi/lib/thumb/v8-m.main+fp/hard\libc_nano.a(lib_a-sprintf.o)
 .text          0x00000000       0x14 c:/siliconlabs/simplicitystudio/v5/developer/toolchains/gnu_arm/10.3_2021.10/bin/../lib/gcc/arm-none-eabi/10.3.1/../../../../arm-none-eabi/lib/thumb/v8-m.main+fp/hard\libc_nano.a(lib_a-strcmp.o)
 .data          0x00000000        0x0 c:/siliconlabs/simplicitystudio/v5/developer/toolchains/gnu_arm/10.3_2021.10/bin/../lib/gcc/arm-none-eabi/10.3.1/../../../../arm-none-eabi/lib/thumb/v8-m.main+fp/hard\libc_nano.a(lib_a-strcmp.o)
 .bss           0x00000000        0x0 c:/siliconlabs/simplicitystudio/v5/developer/toolchains/gnu_arm/10.3_2021.10/bin/../lib/gcc/arm-none-eabi/10.3.1/../../../../arm-none-eabi/lib/thumb/v8-m.main+fp/hard\libc_nano.a(lib_a-strcmp.o)
 .debug_frame   0x00000000       0x20 c:/siliconlabs/simplicitystudio/v5/developer/toolchains/gnu_arm/10.3_2021.10/bin/../lib/gcc/arm-none-eabi/10.3.1/../../../../arm-none-eabi/lib/thumb/v8-m.main+fp/hard\libc_nano.a(lib_a-strcmp.o)
 .ARM.attributes
                0x00000000       0x20 c:/siliconlabs/simplicitystudio/v5/developer/toolchains/gnu_arm/10.3_2021.10/bin/../lib/gcc/arm-none-eabi/10.3.1/../../../../arm-none-eabi/lib/thumb/v8-m.main+fp/hard\libc_nano.a(lib_a-strcmp.o)
 .data          0x00000000        0x0 c:/siliconlabs/simplicitystudio/v5/developer/toolchains/gnu_arm/10.3_2021.10/bin/../lib/gcc/arm-none-eabi/10.3.1/../../../../arm-none-eabi/lib/thumb/v8-m.main+fp/hard\libc_nano.a(lib_a-strlen.o)
 .bss           0x00000000        0x0 c:/siliconlabs/simplicitystudio/v5/developer/toolchains/gnu_arm/10.3_2021.10/bin/../lib/gcc/arm-none-eabi/10.3.1/../../../../arm-none-eabi/lib/thumb/v8-m.main+fp/hard\libc_nano.a(lib_a-strlen.o)
 .text          0x00000000        0x0 c:/siliconlabs/simplicitystudio/v5/developer/toolchains/gnu_arm/10.3_2021.10/bin/../lib/gcc/arm-none-eabi/10.3.1/../../../../arm-none-eabi/lib/thumb/v8-m.main+fp/hard\libc_nano.a(lib_a-vprintf.o)
 .data          0x00000000        0x0 c:/siliconlabs/simplicitystudio/v5/developer/toolchains/gnu_arm/10.3_2021.10/bin/../lib/gcc/arm-none-eabi/10.3.1/../../../../arm-none-eabi/lib/thumb/v8-m.main+fp/hard\libc_nano.a(lib_a-vprintf.o)
 .bss           0x00000000        0x0 c:/siliconlabs/simplicitystudio/v5/developer/toolchains/gnu_arm/10.3_2021.10/bin/../lib/gcc/arm-none-eabi/10.3.1/../../../../arm-none-eabi/lib/thumb/v8-m.main+fp/hard\libc_nano.a(lib_a-vprintf.o)
 .text.vprintf  0x00000000       0x30 c:/siliconlabs/simplicitystudio/v5/developer/toolchains/gnu_arm/10.3_2021.10/bin/../lib/gcc/arm-none-eabi/10.3.1/../../../../arm-none-eabi/lib/thumb/v8-m.main+fp/hard\libc_nano.a(lib_a-vprintf.o)
 .text._vprintf_r
                0x00000000       0x26 c:/siliconlabs/simplicitystudio/v5/developer/toolchains/gnu_arm/10.3_2021.10/bin/../lib/gcc/arm-none-eabi/10.3.1/../../../../arm-none-eabi/lib/thumb/v8-m.main+fp/hard\libc_nano.a(lib_a-vprintf.o)
 .debug_frame   0x00000000       0x54 c:/siliconlabs/simplicitystudio/v5/developer/toolchains/gnu_arm/10.3_2021.10/bin/../lib/gcc/arm-none-eabi/10.3.1/../../../../arm-none-eabi/lib/thumb/v8-m.main+fp/hard\libc_nano.a(lib_a-vprintf.o)
 .ARM.attributes
                0x00000000       0x38 c:/siliconlabs/simplicitystudio/v5/developer/toolchains/gnu_arm/10.3_2021.10/bin/../lib/gcc/arm-none-eabi/10.3.1/../../../../arm-none-eabi/lib/thumb/v8-m.main+fp/hard\libc_nano.a(lib_a-vprintf.o)
 .text          0x00000000        0x0 c:/siliconlabs/simplicitystudio/v5/developer/toolchains/gnu_arm/10.3_2021.10/bin/../lib/gcc/arm-none-eabi/10.3.1/../../../../arm-none-eabi/lib/thumb/v8-m.main+fp/hard\libc_nano.a(lib_a-dtoa.o)
 .data          0x00000000        0x0 c:/siliconlabs/simplicitystudio/v5/developer/toolchains/gnu_arm/10.3_2021.10/bin/../lib/gcc/arm-none-eabi/10.3.1/../../../../arm-none-eabi/lib/thumb/v8-m.main+fp/hard\libc_nano.a(lib_a-dtoa.o)
 .bss           0x00000000        0x0 c:/siliconlabs/simplicitystudio/v5/developer/toolchains/gnu_arm/10.3_2021.10/bin/../lib/gcc/arm-none-eabi/10.3.1/../../../../arm-none-eabi/lib/thumb/v8-m.main+fp/hard\libc_nano.a(lib_a-dtoa.o)
 .text          0x00000000        0x0 c:/siliconlabs/simplicitystudio/v5/developer/toolchains/gnu_arm/10.3_2021.10/bin/../lib/gcc/arm-none-eabi/10.3.1/../../../../arm-none-eabi/lib/thumb/v8-m.main+fp/hard\libc_nano.a(lib_a-fflush.o)
 .data          0x00000000        0x0 c:/siliconlabs/simplicitystudio/v5/developer/toolchains/gnu_arm/10.3_2021.10/bin/../lib/gcc/arm-none-eabi/10.3.1/../../../../arm-none-eabi/lib/thumb/v8-m.main+fp/hard\libc_nano.a(lib_a-fflush.o)
 .bss           0x00000000        0x0 c:/siliconlabs/simplicitystudio/v5/developer/toolchains/gnu_arm/10.3_2021.10/bin/../lib/gcc/arm-none-eabi/10.3.1/../../../../arm-none-eabi/lib/thumb/v8-m.main+fp/hard\libc_nano.a(lib_a-fflush.o)
 .text.fflush   0x00000000       0x24 c:/siliconlabs/simplicitystudio/v5/developer/toolchains/gnu_arm/10.3_2021.10/bin/../lib/gcc/arm-none-eabi/10.3.1/../../../../arm-none-eabi/lib/thumb/v8-m.main+fp/hard\libc_nano.a(lib_a-fflush.o)
 .text          0x00000000        0x0 c:/siliconlabs/simplicitystudio/v5/developer/toolchains/gnu_arm/10.3_2021.10/bin/../lib/gcc/arm-none-eabi/10.3.1/../../../../arm-none-eabi/lib/thumb/v8-m.main+fp/hard\libc_nano.a(lib_a-findfp.o)
 .data          0x00000000        0x0 c:/siliconlabs/simplicitystudio/v5/developer/toolchains/gnu_arm/10.3_2021.10/bin/../lib/gcc/arm-none-eabi/10.3.1/../../../../arm-none-eabi/lib/thumb/v8-m.main+fp/hard\libc_nano.a(lib_a-findfp.o)
 .bss           0x00000000        0x0 c:/siliconlabs/simplicitystudio/v5/developer/toolchains/gnu_arm/10.3_2021.10/bin/../lib/gcc/arm-none-eabi/10.3.1/../../../../arm-none-eabi/lib/thumb/v8-m.main+fp/hard\libc_nano.a(lib_a-findfp.o)
 .text.__fp_lock
                0x00000000       0x18 c:/siliconlabs/simplicitystudio/v5/developer/toolchains/gnu_arm/10.3_2021.10/bin/../lib/gcc/arm-none-eabi/10.3.1/../../../../arm-none-eabi/lib/thumb/v8-m.main+fp/hard\libc_nano.a(lib_a-findfp.o)
 .text.__fp_unlock
                0x00000000       0x18 c:/siliconlabs/simplicitystudio/v5/developer/toolchains/gnu_arm/10.3_2021.10/bin/../lib/gcc/arm-none-eabi/10.3.1/../../../../arm-none-eabi/lib/thumb/v8-m.main+fp/hard\libc_nano.a(lib_a-findfp.o)
 .text._cleanup
                0x00000000        0xc c:/siliconlabs/simplicitystudio/v5/developer/toolchains/gnu_arm/10.3_2021.10/bin/../lib/gcc/arm-none-eabi/10.3.1/../../../../arm-none-eabi/lib/thumb/v8-m.main+fp/hard\libc_nano.a(lib_a-findfp.o)
 .text.__fp_lock_all
                0x00000000       0x1c c:/siliconlabs/simplicitystudio/v5/developer/toolchains/gnu_arm/10.3_2021.10/bin/../lib/gcc/arm-none-eabi/10.3.1/../../../../arm-none-eabi/lib/thumb/v8-m.main+fp/hard\libc_nano.a(lib_a-findfp.o)
 .text.__fp_unlock_all
                0x00000000       0x1c c:/siliconlabs/simplicitystudio/v5/developer/toolchains/gnu_arm/10.3_2021.10/bin/../lib/gcc/arm-none-eabi/10.3.1/../../../../arm-none-eabi/lib/thumb/v8-m.main+fp/hard\libc_nano.a(lib_a-findfp.o)
 .text          0x00000000        0x0 c:/siliconlabs/simplicitystudio/v5/developer/toolchains/gnu_arm/10.3_2021.10/bin/../lib/gcc/arm-none-eabi/10.3.1/../../../../arm-none-eabi/lib/thumb/v8-m.main+fp/hard\libc_nano.a(lib_a-fwalk.o)
 .data          0x00000000        0x0 c:/siliconlabs/simplicitystudio/v5/developer/toolchains/gnu_arm/10.3_2021.10/bin/../lib/gcc/arm-none-eabi/10.3.1/../../../../arm-none-eabi/lib/thumb/v8-m.main+fp/hard\libc_nano.a(lib_a-fwalk.o)
 .bss           0x00000000        0x0 c:/siliconlabs/simplicitystudio/v5/developer/toolchains/gnu_arm/10.3_2021.10/bin/../lib/gcc/arm-none-eabi/10.3.1/../../../../arm-none-eabi/lib/thumb/v8-m.main+fp/hard\libc_nano.a(lib_a-fwalk.o)
 .text._fwalk   0x00000000       0x3a c:/siliconlabs/simplicitystudio/v5/developer/toolchains/gnu_arm/10.3_2021.10/bin/../lib/gcc/arm-none-eabi/10.3.1/../../../../arm-none-eabi/lib/thumb/v8-m.main+fp/hard\libc_nano.a(lib_a-fwalk.o)
 .text          0x00000000        0x0 c:/siliconlabs/simplicitystudio/v5/developer/toolchains/gnu_arm/10.3_2021.10/bin/../lib/gcc/arm-none-eabi/10.3.1/../../../../arm-none-eabi/lib/thumb/v8-m.main+fp/hard\libc_nano.a(lib_a-localeconv.o)
 .data          0x00000000        0x0 c:/siliconlabs/simplicitystudio/v5/developer/toolchains/gnu_arm/10.3_2021.10/bin/../lib/gcc/arm-none-eabi/10.3.1/../../../../arm-none-eabi/lib/thumb/v8-m.main+fp/hard\libc_nano.a(lib_a-localeconv.o)
 .bss           0x00000000        0x0 c:/siliconlabs/simplicitystudio/v5/developer/toolchains/gnu_arm/10.3_2021.10/bin/../lib/gcc/arm-none-eabi/10.3.1/../../../../arm-none-eabi/lib/thumb/v8-m.main+fp/hard\libc_nano.a(lib_a-localeconv.o)
 .text.__localeconv_l
                0x00000000        0x4 c:/siliconlabs/simplicitystudio/v5/developer/toolchains/gnu_arm/10.3_2021.10/bin/../lib/gcc/arm-none-eabi/10.3.1/../../../../arm-none-eabi/lib/thumb/v8-m.main+fp/hard\libc_nano.a(lib_a-localeconv.o)
 .text.localeconv
                0x00000000        0x8 c:/siliconlabs/simplicitystudio/v5/developer/toolchains/gnu_arm/10.3_2021.10/bin/../lib/gcc/arm-none-eabi/10.3.1/../../../../arm-none-eabi/lib/thumb/v8-m.main+fp/hard\libc_nano.a(lib_a-localeconv.o)
 .text          0x00000000        0x0 c:/siliconlabs/simplicitystudio/v5/developer/toolchains/gnu_arm/10.3_2021.10/bin/../lib/gcc/arm-none-eabi/10.3.1/../../../../arm-none-eabi/lib/thumb/v8-m.main+fp/hard\libc_nano.a(lib_a-lock.o)
 .data          0x00000000        0x0 c:/siliconlabs/simplicitystudio/v5/developer/toolchains/gnu_arm/10.3_2021.10/bin/../lib/gcc/arm-none-eabi/10.3.1/../../../../arm-none-eabi/lib/thumb/v8-m.main+fp/hard\libc_nano.a(lib_a-lock.o)
 .bss           0x00000000        0x0 c:/siliconlabs/simplicitystudio/v5/developer/toolchains/gnu_arm/10.3_2021.10/bin/../lib/gcc/arm-none-eabi/10.3.1/../../../../arm-none-eabi/lib/thumb/v8-m.main+fp/hard\libc_nano.a(lib_a-lock.o)
 .text.__retarget_lock_init
                0x00000000        0x2 c:/siliconlabs/simplicitystudio/v5/developer/toolchains/gnu_arm/10.3_2021.10/bin/../lib/gcc/arm-none-eabi/10.3.1/../../../../arm-none-eabi/lib/thumb/v8-m.main+fp/hard\libc_nano.a(lib_a-lock.o)
 .text.__retarget_lock_close
                0x00000000        0x2 c:/siliconlabs/simplicitystudio/v5/developer/toolchains/gnu_arm/10.3_2021.10/bin/../lib/gcc/arm-none-eabi/10.3.1/../../../../arm-none-eabi/lib/thumb/v8-m.main+fp/hard\libc_nano.a(lib_a-lock.o)
 .text.__retarget_lock_close_recursive
                0x00000000        0x2 c:/siliconlabs/simplicitystudio/v5/developer/toolchains/gnu_arm/10.3_2021.10/bin/../lib/gcc/arm-none-eabi/10.3.1/../../../../arm-none-eabi/lib/thumb/v8-m.main+fp/hard\libc_nano.a(lib_a-lock.o)
 .text.__retarget_lock_acquire
                0x00000000        0x2 c:/siliconlabs/simplicitystudio/v5/developer/toolchains/gnu_arm/10.3_2021.10/bin/../lib/gcc/arm-none-eabi/10.3.1/../../../../arm-none-eabi/lib/thumb/v8-m.main+fp/hard\libc_nano.a(lib_a-lock.o)
 .text.__retarget_lock_try_acquire
                0x00000000        0x4 c:/siliconlabs/simplicitystudio/v5/developer/toolchains/gnu_arm/10.3_2021.10/bin/../lib/gcc/arm-none-eabi/10.3.1/../../../../arm-none-eabi/lib/thumb/v8-m.main+fp/hard\libc_nano.a(lib_a-lock.o)
 .text.__retarget_lock_try_acquire_recursive
                0x00000000        0x4 c:/siliconlabs/simplicitystudio/v5/developer/toolchains/gnu_arm/10.3_2021.10/bin/../lib/gcc/arm-none-eabi/10.3.1/../../../../arm-none-eabi/lib/thumb/v8-m.main+fp/hard\libc_nano.a(lib_a-lock.o)
 .text.__retarget_lock_release
                0x00000000        0x2 c:/siliconlabs/simplicitystudio/v5/developer/toolchains/gnu_arm/10.3_2021.10/bin/../lib/gcc/arm-none-eabi/10.3.1/../../../../arm-none-eabi/lib/thumb/v8-m.main+fp/hard\libc_nano.a(lib_a-lock.o)
 .bss.__lock___arc4random_mutex
                0x00000000        0x1 c:/siliconlabs/simplicitystudio/v5/developer/toolchains/gnu_arm/10.3_2021.10/bin/../lib/gcc/arm-none-eabi/10.3.1/../../../../arm-none-eabi/lib/thumb/v8-m.main+fp/hard\libc_nano.a(lib_a-lock.o)
 .bss.__lock___at_quick_exit_mutex
                0x00000000        0x1 c:/siliconlabs/simplicitystudio/v5/developer/toolchains/gnu_arm/10.3_2021.10/bin/../lib/gcc/arm-none-eabi/10.3.1/../../../../arm-none-eabi/lib/thumb/v8-m.main+fp/hard\libc_nano.a(lib_a-lock.o)
 .bss.__lock___atexit_recursive_mutex
                0x00000000        0x1 c:/siliconlabs/simplicitystudio/v5/developer/toolchains/gnu_arm/10.3_2021.10/bin/../lib/gcc/arm-none-eabi/10.3.1/../../../../arm-none-eabi/lib/thumb/v8-m.main+fp/hard\libc_nano.a(lib_a-lock.o)
 .bss.__lock___dd_hash_mutex
                0x00000000        0x1 c:/siliconlabs/simplicitystudio/v5/developer/toolchains/gnu_arm/10.3_2021.10/bin/../lib/gcc/arm-none-eabi/10.3.1/../../../../arm-none-eabi/lib/thumb/v8-m.main+fp/hard\libc_nano.a(lib_a-lock.o)
 .bss.__lock___env_recursive_mutex
                0x00000000        0x1 c:/siliconlabs/simplicitystudio/v5/developer/toolchains/gnu_arm/10.3_2021.10/bin/../lib/gcc/arm-none-eabi/10.3.1/../../../../arm-none-eabi/lib/thumb/v8-m.main+fp/hard\libc_nano.a(lib_a-lock.o)
 .bss.__lock___tz_mutex
                0x00000000        0x1 c:/siliconlabs/simplicitystudio/v5/developer/toolchains/gnu_arm/10.3_2021.10/bin/../lib/gcc/arm-none-eabi/10.3.1/../../../../arm-none-eabi/lib/thumb/v8-m.main+fp/hard\libc_nano.a(lib_a-lock.o)
 .text          0x00000000        0x0 c:/siliconlabs/simplicitystudio/v5/developer/toolchains/gnu_arm/10.3_2021.10/bin/../lib/gcc/arm-none-eabi/10.3.1/../../../../arm-none-eabi/lib/thumb/v8-m.main+fp/hard\libc_nano.a(lib_a-makebuf.o)
 .data          0x00000000        0x0 c:/siliconlabs/simplicitystudio/v5/developer/toolchains/gnu_arm/10.3_2021.10/bin/../lib/gcc/arm-none-eabi/10.3.1/../../../../arm-none-eabi/lib/thumb/v8-m.main+fp/hard\libc_nano.a(lib_a-makebuf.o)
 .bss           0x00000000        0x0 c:/siliconlabs/simplicitystudio/v5/developer/toolchains/gnu_arm/10.3_2021.10/bin/../lib/gcc/arm-none-eabi/10.3.1/../../../../arm-none-eabi/lib/thumb/v8-m.main+fp/hard\libc_nano.a(lib_a-makebuf.o)
 .text          0x00000000        0x0 c:/siliconlabs/simplicitystudio/v5/developer/toolchains/gnu_arm/10.3_2021.10/bin/../lib/gcc/arm-none-eabi/10.3.1/../../../../arm-none-eabi/lib/thumb/v8-m.main+fp/hard\libc_nano.a(lib_a-malloc.o)
 .data          0x00000000        0x0 c:/siliconlabs/simplicitystudio/v5/developer/toolchains/gnu_arm/10.3_2021.10/bin/../lib/gcc/arm-none-eabi/10.3.1/../../../../arm-none-eabi/lib/thumb/v8-m.main+fp/hard\libc_nano.a(lib_a-malloc.o)
 .bss           0x00000000        0x0 c:/siliconlabs/simplicitystudio/v5/developer/toolchains/gnu_arm/10.3_2021.10/bin/../lib/gcc/arm-none-eabi/10.3.1/../../../../arm-none-eabi/lib/thumb/v8-m.main+fp/hard\libc_nano.a(lib_a-malloc.o)
 .text.free     0x00000000       0x10 c:/siliconlabs/simplicitystudio/v5/developer/toolchains/gnu_arm/10.3_2021.10/bin/../lib/gcc/arm-none-eabi/10.3.1/../../../../arm-none-eabi/lib/thumb/v8-m.main+fp/hard\libc_nano.a(lib_a-malloc.o)
 .text          0x00000000        0x0 c:/siliconlabs/simplicitystudio/v5/developer/toolchains/gnu_arm/10.3_2021.10/bin/../lib/gcc/arm-none-eabi/10.3.1/../../../../arm-none-eabi/lib/thumb/v8-m.main+fp/hard\libc_nano.a(lib_a-memchr-stub.o)
 .data          0x00000000        0x0 c:/siliconlabs/simplicitystudio/v5/developer/toolchains/gnu_arm/10.3_2021.10/bin/../lib/gcc/arm-none-eabi/10.3.1/../../../../arm-none-eabi/lib/thumb/v8-m.main+fp/hard\libc_nano.a(lib_a-memchr-stub.o)
 .bss           0x00000000        0x0 c:/siliconlabs/simplicitystudio/v5/developer/toolchains/gnu_arm/10.3_2021.10/bin/../lib/gcc/arm-none-eabi/10.3.1/../../../../arm-none-eabi/lib/thumb/v8-m.main+fp/hard\libc_nano.a(lib_a-memchr-stub.o)
 .text          0x00000000        0x0 c:/siliconlabs/simplicitystudio/v5/developer/toolchains/gnu_arm/10.3_2021.10/bin/../lib/gcc/arm-none-eabi/10.3.1/../../../../arm-none-eabi/lib/thumb/v8-m.main+fp/hard\libc_nano.a(lib_a-mprec.o)
 .data          0x00000000        0x0 c:/siliconlabs/simplicitystudio/v5/developer/toolchains/gnu_arm/10.3_2021.10/bin/../lib/gcc/arm-none-eabi/10.3.1/../../../../arm-none-eabi/lib/thumb/v8-m.main+fp/hard\libc_nano.a(lib_a-mprec.o)
 .bss           0x00000000        0x0 c:/siliconlabs/simplicitystudio/v5/developer/toolchains/gnu_arm/10.3_2021.10/bin/../lib/gcc/arm-none-eabi/10.3.1/../../../../arm-none-eabi/lib/thumb/v8-m.main+fp/hard\libc_nano.a(lib_a-mprec.o)
 .text.__s2b    0x00000000       0x94 c:/siliconlabs/simplicitystudio/v5/developer/toolchains/gnu_arm/10.3_2021.10/bin/../lib/gcc/arm-none-eabi/10.3.1/../../../../arm-none-eabi/lib/thumb/v8-m.main+fp/hard\libc_nano.a(lib_a-mprec.o)
 .text.__ulp    0x00000000       0x54 c:/siliconlabs/simplicitystudio/v5/developer/toolchains/gnu_arm/10.3_2021.10/bin/../lib/gcc/arm-none-eabi/10.3.1/../../../../arm-none-eabi/lib/thumb/v8-m.main+fp/hard\libc_nano.a(lib_a-mprec.o)
 .text.__b2d    0x00000000       0xa0 c:/siliconlabs/simplicitystudio/v5/developer/toolchains/gnu_arm/10.3_2021.10/bin/../lib/gcc/arm-none-eabi/10.3.1/../../../../arm-none-eabi/lib/thumb/v8-m.main+fp/hard\libc_nano.a(lib_a-mprec.o)
 .text.__ratio  0x00000000       0x66 c:/siliconlabs/simplicitystudio/v5/developer/toolchains/gnu_arm/10.3_2021.10/bin/../lib/gcc/arm-none-eabi/10.3.1/../../../../arm-none-eabi/lib/thumb/v8-m.main+fp/hard\libc_nano.a(lib_a-mprec.o)
 .text._mprec_log10
                0x00000000       0x3c c:/siliconlabs/simplicitystudio/v5/developer/toolchains/gnu_arm/10.3_2021.10/bin/../lib/gcc/arm-none-eabi/10.3.1/../../../../arm-none-eabi/lib/thumb/v8-m.main+fp/hard\libc_nano.a(lib_a-mprec.o)
 .text.__copybits
                0x00000000       0x46 c:/siliconlabs/simplicitystudio/v5/developer/toolchains/gnu_arm/10.3_2021.10/bin/../lib/gcc/arm-none-eabi/10.3.1/../../../../arm-none-eabi/lib/thumb/v8-m.main+fp/hard\libc_nano.a(lib_a-mprec.o)
 .text.__any_on
                0x00000000       0x42 c:/siliconlabs/simplicitystudio/v5/developer/toolchains/gnu_arm/10.3_2021.10/bin/../lib/gcc/arm-none-eabi/10.3.1/../../../../arm-none-eabi/lib/thumb/v8-m.main+fp/hard\libc_nano.a(lib_a-mprec.o)
 .rodata.__mprec_tinytens
                0x00000000       0x28 c:/siliconlabs/simplicitystudio/v5/developer/toolchains/gnu_arm/10.3_2021.10/bin/../lib/gcc/arm-none-eabi/10.3.1/../../../../arm-none-eabi/lib/thumb/v8-m.main+fp/hard\libc_nano.a(lib_a-mprec.o)
 .text          0x00000000        0x0 c:/siliconlabs/simplicitystudio/v5/developer/toolchains/gnu_arm/10.3_2021.10/bin/../lib/gcc/arm-none-eabi/10.3.1/../../../../arm-none-eabi/lib/thumb/v8-m.main+fp/hard\libc_nano.a(lib_a-nano-callocr.o)
 .data          0x00000000        0x0 c:/siliconlabs/simplicitystudio/v5/developer/toolchains/gnu_arm/10.3_2021.10/bin/../lib/gcc/arm-none-eabi/10.3.1/../../../../arm-none-eabi/lib/thumb/v8-m.main+fp/hard\libc_nano.a(lib_a-nano-callocr.o)
 .bss           0x00000000        0x0 c:/siliconlabs/simplicitystudio/v5/developer/toolchains/gnu_arm/10.3_2021.10/bin/../lib/gcc/arm-none-eabi/10.3.1/../../../../arm-none-eabi/lib/thumb/v8-m.main+fp/hard\libc_nano.a(lib_a-nano-callocr.o)
 .text          0x00000000        0x0 c:/siliconlabs/simplicitystudio/v5/developer/toolchains/gnu_arm/10.3_2021.10/bin/../lib/gcc/arm-none-eabi/10.3.1/../../../../arm-none-eabi/lib/thumb/v8-m.main+fp/hard\libc_nano.a(lib_a-nano-freer.o)
 .data          0x00000000        0x0 c:/siliconlabs/simplicitystudio/v5/developer/toolchains/gnu_arm/10.3_2021.10/bin/../lib/gcc/arm-none-eabi/10.3.1/../../../../arm-none-eabi/lib/thumb/v8-m.main+fp/hard\libc_nano.a(lib_a-nano-freer.o)
 .bss           0x00000000        0x0 c:/siliconlabs/simplicitystudio/v5/developer/toolchains/gnu_arm/10.3_2021.10/bin/../lib/gcc/arm-none-eabi/10.3.1/../../../../arm-none-eabi/lib/thumb/v8-m.main+fp/hard\libc_nano.a(lib_a-nano-freer.o)
 .text          0x00000000        0x0 c:/siliconlabs/simplicitystudio/v5/developer/toolchains/gnu_arm/10.3_2021.10/bin/../lib/gcc/arm-none-eabi/10.3.1/../../../../arm-none-eabi/lib/thumb/v8-m.main+fp/hard\libc_nano.a(lib_a-nano-mallocr.o)
 .data          0x00000000        0x0 c:/siliconlabs/simplicitystudio/v5/developer/toolchains/gnu_arm/10.3_2021.10/bin/../lib/gcc/arm-none-eabi/10.3.1/../../../../arm-none-eabi/lib/thumb/v8-m.main+fp/hard\libc_nano.a(lib_a-nano-mallocr.o)
 .bss           0x00000000        0x0 c:/siliconlabs/simplicitystudio/v5/developer/toolchains/gnu_arm/10.3_2021.10/bin/../lib/gcc/arm-none-eabi/10.3.1/../../../../arm-none-eabi/lib/thumb/v8-m.main+fp/hard\libc_nano.a(lib_a-nano-mallocr.o)
 .text          0x00000000        0x0 c:/siliconlabs/simplicitystudio/v5/developer/toolchains/gnu_arm/10.3_2021.10/bin/../lib/gcc/arm-none-eabi/10.3.1/../../../../arm-none-eabi/lib/thumb/v8-m.main+fp/hard\libc_nano.a(lib_a-nano-svfprintf.o)
 .data          0x00000000        0x0 c:/siliconlabs/simplicitystudio/v5/developer/toolchains/gnu_arm/10.3_2021.10/bin/../lib/gcc/arm-none-eabi/10.3.1/../../../../arm-none-eabi/lib/thumb/v8-m.main+fp/hard\libc_nano.a(lib_a-nano-svfprintf.o)
 .bss           0x00000000        0x0 c:/siliconlabs/simplicitystudio/v5/developer/toolchains/gnu_arm/10.3_2021.10/bin/../lib/gcc/arm-none-eabi/10.3.1/../../../../arm-none-eabi/lib/thumb/v8-m.main+fp/hard\libc_nano.a(lib_a-nano-svfprintf.o)
 .text.__ssprint_r
                0x00000000       0xf6 c:/siliconlabs/simplicitystudio/v5/developer/toolchains/gnu_arm/10.3_2021.10/bin/../lib/gcc/arm-none-eabi/10.3.1/../../../../arm-none-eabi/lib/thumb/v8-m.main+fp/hard\libc_nano.a(lib_a-nano-svfprintf.o)
 .text          0x00000000        0x0 c:/siliconlabs/simplicitystudio/v5/developer/toolchains/gnu_arm/10.3_2021.10/bin/../lib/gcc/arm-none-eabi/10.3.1/../../../../arm-none-eabi/lib/thumb/v8-m.main+fp/hard\libc_nano.a(lib_a-nano-vfprintf.o)
 .data          0x00000000        0x0 c:/siliconlabs/simplicitystudio/v5/developer/toolchains/gnu_arm/10.3_2021.10/bin/../lib/gcc/arm-none-eabi/10.3.1/../../../../arm-none-eabi/lib/thumb/v8-m.main+fp/hard\libc_nano.a(lib_a-nano-vfprintf.o)
 .bss           0x00000000        0x0 c:/siliconlabs/simplicitystudio/v5/developer/toolchains/gnu_arm/10.3_2021.10/bin/../lib/gcc/arm-none-eabi/10.3.1/../../../../arm-none-eabi/lib/thumb/v8-m.main+fp/hard\libc_nano.a(lib_a-nano-vfprintf.o)
 .text.__sprint_r
                0x00000000       0x1a c:/siliconlabs/simplicitystudio/v5/developer/toolchains/gnu_arm/10.3_2021.10/bin/../lib/gcc/arm-none-eabi/10.3.1/../../../../arm-none-eabi/lib/thumb/v8-m.main+fp/hard\libc_nano.a(lib_a-nano-vfprintf.o)
 .text.vfprintf
                0x00000000       0x14 c:/siliconlabs/simplicitystudio/v5/developer/toolchains/gnu_arm/10.3_2021.10/bin/../lib/gcc/arm-none-eabi/10.3.1/../../../../arm-none-eabi/lib/thumb/v8-m.main+fp/hard\libc_nano.a(lib_a-nano-vfprintf.o)
 .text          0x00000000        0x0 c:/siliconlabs/simplicitystudio/v5/developer/toolchains/gnu_arm/10.3_2021.10/bin/../lib/gcc/arm-none-eabi/10.3.1/../../../../arm-none-eabi/lib/thumb/v8-m.main+fp/hard\libc_nano.a(lib_a-sbrkr.o)
 .data          0x00000000        0x0 c:/siliconlabs/simplicitystudio/v5/developer/toolchains/gnu_arm/10.3_2021.10/bin/../lib/gcc/arm-none-eabi/10.3.1/../../../../arm-none-eabi/lib/thumb/v8-m.main+fp/hard\libc_nano.a(lib_a-sbrkr.o)
 .bss           0x00000000        0x0 c:/siliconlabs/simplicitystudio/v5/developer/toolchains/gnu_arm/10.3_2021.10/bin/../lib/gcc/arm-none-eabi/10.3.1/../../../../arm-none-eabi/lib/thumb/v8-m.main+fp/hard\libc_nano.a(lib_a-sbrkr.o)
 .text          0x00000000        0x0 c:/siliconlabs/simplicitystudio/v5/developer/toolchains/gnu_arm/10.3_2021.10/bin/../lib/gcc/arm-none-eabi/10.3.1/../../../../arm-none-eabi/lib/thumb/v8-m.main+fp/hard\libc_nano.a(lib_a-stdio.o)
 .data          0x00000000        0x0 c:/siliconlabs/simplicitystudio/v5/developer/toolchains/gnu_arm/10.3_2021.10/bin/../lib/gcc/arm-none-eabi/10.3.1/../../../../arm-none-eabi/lib/thumb/v8-m.main+fp/hard\libc_nano.a(lib_a-stdio.o)
 .bss           0x00000000        0x0 c:/siliconlabs/simplicitystudio/v5/developer/toolchains/gnu_arm/10.3_2021.10/bin/../lib/gcc/arm-none-eabi/10.3.1/../../../../arm-none-eabi/lib/thumb/v8-m.main+fp/hard\libc_nano.a(lib_a-stdio.o)
 .text.__seofread
                0x00000000        0x4 c:/siliconlabs/simplicitystudio/v5/developer/toolchains/gnu_arm/10.3_2021.10/bin/../lib/gcc/arm-none-eabi/10.3.1/../../../../arm-none-eabi/lib/thumb/v8-m.main+fp/hard\libc_nano.a(lib_a-stdio.o)
 .text          0x00000000        0x0 c:/siliconlabs/simplicitystudio/v5/developer/toolchains/gnu_arm/10.3_2021.10/bin/../lib/gcc/arm-none-eabi/10.3.1/../../../../arm-none-eabi/lib/thumb/v8-m.main+fp/hard\libc_nano.a(lib_a-wbuf.o)
 .data          0x00000000        0x0 c:/siliconlabs/simplicitystudio/v5/developer/toolchains/gnu_arm/10.3_2021.10/bin/../lib/gcc/arm-none-eabi/10.3.1/../../../../arm-none-eabi/lib/thumb/v8-m.main+fp/hard\libc_nano.a(lib_a-wbuf.o)
 .bss           0x00000000        0x0 c:/siliconlabs/simplicitystudio/v5/developer/toolchains/gnu_arm/10.3_2021.10/bin/../lib/gcc/arm-none-eabi/10.3.1/../../../../arm-none-eabi/lib/thumb/v8-m.main+fp/hard\libc_nano.a(lib_a-wbuf.o)
 .text.__swbuf  0x00000000       0x10 c:/siliconlabs/simplicitystudio/v5/developer/toolchains/gnu_arm/10.3_2021.10/bin/../lib/gcc/arm-none-eabi/10.3.1/../../../../arm-none-eabi/lib/thumb/v8-m.main+fp/hard\libc_nano.a(lib_a-wbuf.o)
 .text          0x00000000        0x0 c:/siliconlabs/simplicitystudio/v5/developer/toolchains/gnu_arm/10.3_2021.10/bin/../lib/gcc/arm-none-eabi/10.3.1/../../../../arm-none-eabi/lib/thumb/v8-m.main+fp/hard\libc_nano.a(lib_a-writer.o)
 .data          0x00000000        0x0 c:/siliconlabs/simplicitystudio/v5/developer/toolchains/gnu_arm/10.3_2021.10/bin/../lib/gcc/arm-none-eabi/10.3.1/../../../../arm-none-eabi/lib/thumb/v8-m.main+fp/hard\libc_nano.a(lib_a-writer.o)
 .bss           0x00000000        0x0 c:/siliconlabs/simplicitystudio/v5/developer/toolchains/gnu_arm/10.3_2021.10/bin/../lib/gcc/arm-none-eabi/10.3.1/../../../../arm-none-eabi/lib/thumb/v8-m.main+fp/hard\libc_nano.a(lib_a-writer.o)
 .text          0x00000000        0x0 c:/siliconlabs/simplicitystudio/v5/developer/toolchains/gnu_arm/10.3_2021.10/bin/../lib/gcc/arm-none-eabi/10.3.1/../../../../arm-none-eabi/lib/thumb/v8-m.main+fp/hard\libc_nano.a(lib_a-wsetup.o)
 .data          0x00000000        0x0 c:/siliconlabs/simplicitystudio/v5/developer/toolchains/gnu_arm/10.3_2021.10/bin/../lib/gcc/arm-none-eabi/10.3.1/../../../../arm-none-eabi/lib/thumb/v8-m.main+fp/hard\libc_nano.a(lib_a-wsetup.o)
 .bss           0x00000000        0x0 c:/siliconlabs/simplicitystudio/v5/developer/toolchains/gnu_arm/10.3_2021.10/bin/../lib/gcc/arm-none-eabi/10.3.1/../../../../arm-none-eabi/lib/thumb/v8-m.main+fp/hard\libc_nano.a(lib_a-wsetup.o)
 .text          0x00000000        0x0 c:/siliconlabs/simplicitystudio/v5/developer/toolchains/gnu_arm/10.3_2021.10/bin/../lib/gcc/arm-none-eabi/10.3.1/../../../../arm-none-eabi/lib/thumb/v8-m.main+fp/hard\libc_nano.a(lib_a-assert.o)
 .data          0x00000000        0x0 c:/siliconlabs/simplicitystudio/v5/developer/toolchains/gnu_arm/10.3_2021.10/bin/../lib/gcc/arm-none-eabi/10.3.1/../../../../arm-none-eabi/lib/thumb/v8-m.main+fp/hard\libc_nano.a(lib_a-assert.o)
 .bss           0x00000000        0x0 c:/siliconlabs/simplicitystudio/v5/developer/toolchains/gnu_arm/10.3_2021.10/bin/../lib/gcc/arm-none-eabi/10.3.1/../../../../arm-none-eabi/lib/thumb/v8-m.main+fp/hard\libc_nano.a(lib_a-assert.o)
 .text.__assert
                0x00000000        0xa c:/siliconlabs/simplicitystudio/v5/developer/toolchains/gnu_arm/10.3_2021.10/bin/../lib/gcc/arm-none-eabi/10.3.1/../../../../arm-none-eabi/lib/thumb/v8-m.main+fp/hard\libc_nano.a(lib_a-assert.o)
 .text          0x00000000        0x0 c:/siliconlabs/simplicitystudio/v5/developer/toolchains/gnu_arm/10.3_2021.10/bin/../lib/gcc/arm-none-eabi/10.3.1/../../../../arm-none-eabi/lib/thumb/v8-m.main+fp/hard\libc_nano.a(lib_a-closer.o)
 .data          0x00000000        0x0 c:/siliconlabs/simplicitystudio/v5/developer/toolchains/gnu_arm/10.3_2021.10/bin/../lib/gcc/arm-none-eabi/10.3.1/../../../../arm-none-eabi/lib/thumb/v8-m.main+fp/hard\libc_nano.a(lib_a-closer.o)
 .bss           0x00000000        0x0 c:/siliconlabs/simplicitystudio/v5/developer/toolchains/gnu_arm/10.3_2021.10/bin/../lib/gcc/arm-none-eabi/10.3.1/../../../../arm-none-eabi/lib/thumb/v8-m.main+fp/hard\libc_nano.a(lib_a-closer.o)
 .text          0x00000000        0x0 c:/siliconlabs/simplicitystudio/v5/developer/toolchains/gnu_arm/10.3_2021.10/bin/../lib/gcc/arm-none-eabi/10.3.1/../../../../arm-none-eabi/lib/thumb/v8-m.main+fp/hard\libc_nano.a(lib_a-fprintf.o)
 .data          0x00000000        0x0 c:/siliconlabs/simplicitystudio/v5/developer/toolchains/gnu_arm/10.3_2021.10/bin/../lib/gcc/arm-none-eabi/10.3.1/../../../../arm-none-eabi/lib/thumb/v8-m.main+fp/hard\libc_nano.a(lib_a-fprintf.o)
 .bss           0x00000000        0x0 c:/siliconlabs/simplicitystudio/v5/developer/toolchains/gnu_arm/10.3_2021.10/bin/../lib/gcc/arm-none-eabi/10.3.1/../../../../arm-none-eabi/lib/thumb/v8-m.main+fp/hard\libc_nano.a(lib_a-fprintf.o)
 .text._fprintf_r
                0x00000000       0x1a c:/siliconlabs/simplicitystudio/v5/developer/toolchains/gnu_arm/10.3_2021.10/bin/../lib/gcc/arm-none-eabi/10.3.1/../../../../arm-none-eabi/lib/thumb/v8-m.main+fp/hard\libc_nano.a(lib_a-fprintf.o)
 .text          0x00000000        0x0 c:/siliconlabs/simplicitystudio/v5/developer/toolchains/gnu_arm/10.3_2021.10/bin/../lib/gcc/arm-none-eabi/10.3.1/../../../../arm-none-eabi/lib/thumb/v8-m.main+fp/hard\libc_nano.a(lib_a-fstatr.o)
 .data          0x00000000        0x0 c:/siliconlabs/simplicitystudio/v5/developer/toolchains/gnu_arm/10.3_2021.10/bin/../lib/gcc/arm-none-eabi/10.3.1/../../../../arm-none-eabi/lib/thumb/v8-m.main+fp/hard\libc_nano.a(lib_a-fstatr.o)
 .bss           0x00000000        0x0 c:/siliconlabs/simplicitystudio/v5/developer/toolchains/gnu_arm/10.3_2021.10/bin/../lib/gcc/arm-none-eabi/10.3.1/../../../../arm-none-eabi/lib/thumb/v8-m.main+fp/hard\libc_nano.a(lib_a-fstatr.o)
 .text          0x00000000        0x0 c:/siliconlabs/simplicitystudio/v5/developer/toolchains/gnu_arm/10.3_2021.10/bin/../lib/gcc/arm-none-eabi/10.3.1/../../../../arm-none-eabi/lib/thumb/v8-m.main+fp/hard\libc_nano.a(lib_a-fvwrite.o)
 .data          0x00000000        0x0 c:/siliconlabs/simplicitystudio/v5/developer/toolchains/gnu_arm/10.3_2021.10/bin/../lib/gcc/arm-none-eabi/10.3.1/../../../../arm-none-eabi/lib/thumb/v8-m.main+fp/hard\libc_nano.a(lib_a-fvwrite.o)
 .bss           0x00000000        0x0 c:/siliconlabs/simplicitystudio/v5/developer/toolchains/gnu_arm/10.3_2021.10/bin/../lib/gcc/arm-none-eabi/10.3.1/../../../../arm-none-eabi/lib/thumb/v8-m.main+fp/hard\libc_nano.a(lib_a-fvwrite.o)
 .text.__sfvwrite_r
                0x00000000      0x294 c:/siliconlabs/simplicitystudio/v5/developer/toolchains/gnu_arm/10.3_2021.10/bin/../lib/gcc/arm-none-eabi/10.3.1/../../../../arm-none-eabi/lib/thumb/v8-m.main+fp/hard\libc_nano.a(lib_a-fvwrite.o)
 .debug_frame   0x00000000       0x3c c:/siliconlabs/simplicitystudio/v5/developer/toolchains/gnu_arm/10.3_2021.10/bin/../lib/gcc/arm-none-eabi/10.3.1/../../../../arm-none-eabi/lib/thumb/v8-m.main+fp/hard\libc_nano.a(lib_a-fvwrite.o)
 .ARM.attributes
                0x00000000       0x38 c:/siliconlabs/simplicitystudio/v5/developer/toolchains/gnu_arm/10.3_2021.10/bin/../lib/gcc/arm-none-eabi/10.3.1/../../../../arm-none-eabi/lib/thumb/v8-m.main+fp/hard\libc_nano.a(lib_a-fvwrite.o)
 .text          0x00000000        0x0 c:/siliconlabs/simplicitystudio/v5/developer/toolchains/gnu_arm/10.3_2021.10/bin/../lib/gcc/arm-none-eabi/10.3.1/../../../../arm-none-eabi/lib/thumb/v8-m.main+fp/hard\libc_nano.a(lib_a-isattyr.o)
 .data          0x00000000        0x0 c:/siliconlabs/simplicitystudio/v5/developer/toolchains/gnu_arm/10.3_2021.10/bin/../lib/gcc/arm-none-eabi/10.3.1/../../../../arm-none-eabi/lib/thumb/v8-m.main+fp/hard\libc_nano.a(lib_a-isattyr.o)
 .bss           0x00000000        0x0 c:/siliconlabs/simplicitystudio/v5/developer/toolchains/gnu_arm/10.3_2021.10/bin/../lib/gcc/arm-none-eabi/10.3.1/../../../../arm-none-eabi/lib/thumb/v8-m.main+fp/hard\libc_nano.a(lib_a-isattyr.o)
 .text          0x00000000        0x0 c:/siliconlabs/simplicitystudio/v5/developer/toolchains/gnu_arm/10.3_2021.10/bin/../lib/gcc/arm-none-eabi/10.3.1/../../../../arm-none-eabi/lib/thumb/v8-m.main+fp/hard\libc_nano.a(lib_a-locale.o)
 .data          0x00000000        0x0 c:/siliconlabs/simplicitystudio/v5/developer/toolchains/gnu_arm/10.3_2021.10/bin/../lib/gcc/arm-none-eabi/10.3.1/../../../../arm-none-eabi/lib/thumb/v8-m.main+fp/hard\libc_nano.a(lib_a-locale.o)
 .bss           0x00000000        0x0 c:/siliconlabs/simplicitystudio/v5/developer/toolchains/gnu_arm/10.3_2021.10/bin/../lib/gcc/arm-none-eabi/10.3.1/../../../../arm-none-eabi/lib/thumb/v8-m.main+fp/hard\libc_nano.a(lib_a-locale.o)
 .text._setlocale_r
                0x00000000       0x40 c:/siliconlabs/simplicitystudio/v5/developer/toolchains/gnu_arm/10.3_2021.10/bin/../lib/gcc/arm-none-eabi/10.3.1/../../../../arm-none-eabi/lib/thumb/v8-m.main+fp/hard\libc_nano.a(lib_a-locale.o)
 .text.__locale_mb_cur_max
                0x00000000        0xc c:/siliconlabs/simplicitystudio/v5/developer/toolchains/gnu_arm/10.3_2021.10/bin/../lib/gcc/arm-none-eabi/10.3.1/../../../../arm-none-eabi/lib/thumb/v8-m.main+fp/hard\libc_nano.a(lib_a-locale.o)
 .text.setlocale
                0x00000000       0x10 c:/siliconlabs/simplicitystudio/v5/developer/toolchains/gnu_arm/10.3_2021.10/bin/../lib/gcc/arm-none-eabi/10.3.1/../../../../arm-none-eabi/lib/thumb/v8-m.main+fp/hard\libc_nano.a(lib_a-locale.o)
 .bss._PathLocale
                0x00000000        0x4 c:/siliconlabs/simplicitystudio/v5/developer/toolchains/gnu_arm/10.3_2021.10/bin/../lib/gcc/arm-none-eabi/10.3.1/../../../../arm-none-eabi/lib/thumb/v8-m.main+fp/hard\libc_nano.a(lib_a-locale.o)
 .text          0x00000000        0x0 c:/siliconlabs/simplicitystudio/v5/developer/toolchains/gnu_arm/10.3_2021.10/bin/../lib/gcc/arm-none-eabi/10.3.1/../../../../arm-none-eabi/lib/thumb/v8-m.main+fp/hard\libc_nano.a(lib_a-lseekr.o)
 .data          0x00000000        0x0 c:/siliconlabs/simplicitystudio/v5/developer/toolchains/gnu_arm/10.3_2021.10/bin/../lib/gcc/arm-none-eabi/10.3.1/../../../../arm-none-eabi/lib/thumb/v8-m.main+fp/hard\libc_nano.a(lib_a-lseekr.o)
 .bss           0x00000000        0x0 c:/siliconlabs/simplicitystudio/v5/developer/toolchains/gnu_arm/10.3_2021.10/bin/../lib/gcc/arm-none-eabi/10.3.1/../../../../arm-none-eabi/lib/thumb/v8-m.main+fp/hard\libc_nano.a(lib_a-lseekr.o)
 .text          0x00000000        0x0 c:/siliconlabs/simplicitystudio/v5/developer/toolchains/gnu_arm/10.3_2021.10/bin/../lib/gcc/arm-none-eabi/10.3.1/../../../../arm-none-eabi/lib/thumb/v8-m.main+fp/hard\libc_nano.a(lib_a-mbtowc_r.o)
 .data          0x00000000        0x0 c:/siliconlabs/simplicitystudio/v5/developer/toolchains/gnu_arm/10.3_2021.10/bin/../lib/gcc/arm-none-eabi/10.3.1/../../../../arm-none-eabi/lib/thumb/v8-m.main+fp/hard\libc_nano.a(lib_a-mbtowc_r.o)
 .bss           0x00000000        0x0 c:/siliconlabs/simplicitystudio/v5/developer/toolchains/gnu_arm/10.3_2021.10/bin/../lib/gcc/arm-none-eabi/10.3.1/../../../../arm-none-eabi/lib/thumb/v8-m.main+fp/hard\libc_nano.a(lib_a-mbtowc_r.o)
 .text._mbtowc_r
                0x00000000       0x14 c:/siliconlabs/simplicitystudio/v5/developer/toolchains/gnu_arm/10.3_2021.10/bin/../lib/gcc/arm-none-eabi/10.3.1/../../../../arm-none-eabi/lib/thumb/v8-m.main+fp/hard\libc_nano.a(lib_a-mbtowc_r.o)
 .text          0x00000000        0x0 c:/siliconlabs/simplicitystudio/v5/developer/toolchains/gnu_arm/10.3_2021.10/bin/../lib/gcc/arm-none-eabi/10.3.1/../../../../arm-none-eabi/lib/thumb/v8-m.main+fp/hard\libc_nano.a(lib_a-memmove.o)
 .data          0x00000000        0x0 c:/siliconlabs/simplicitystudio/v5/developer/toolchains/gnu_arm/10.3_2021.10/bin/../lib/gcc/arm-none-eabi/10.3.1/../../../../arm-none-eabi/lib/thumb/v8-m.main+fp/hard\libc_nano.a(lib_a-memmove.o)
 .bss           0x00000000        0x0 c:/siliconlabs/simplicitystudio/v5/developer/toolchains/gnu_arm/10.3_2021.10/bin/../lib/gcc/arm-none-eabi/10.3.1/../../../../arm-none-eabi/lib/thumb/v8-m.main+fp/hard\libc_nano.a(lib_a-memmove.o)
 .text          0x00000000        0x0 c:/siliconlabs/simplicitystudio/v5/developer/toolchains/gnu_arm/10.3_2021.10/bin/../lib/gcc/arm-none-eabi/10.3.1/../../../../arm-none-eabi/lib/thumb/v8-m.main+fp/hard\libc_nano.a(lib_a-mlock.o)
 .data          0x00000000        0x0 c:/siliconlabs/simplicitystudio/v5/developer/toolchains/gnu_arm/10.3_2021.10/bin/../lib/gcc/arm-none-eabi/10.3.1/../../../../arm-none-eabi/lib/thumb/v8-m.main+fp/hard\libc_nano.a(lib_a-mlock.o)
 .bss           0x00000000        0x0 c:/siliconlabs/simplicitystudio/v5/developer/toolchains/gnu_arm/10.3_2021.10/bin/../lib/gcc/arm-none-eabi/10.3.1/../../../../arm-none-eabi/lib/thumb/v8-m.main+fp/hard\libc_nano.a(lib_a-mlock.o)
 .text          0x00000000        0x0 c:/siliconlabs/simplicitystudio/v5/developer/toolchains/gnu_arm/10.3_2021.10/bin/../lib/gcc/arm-none-eabi/10.3.1/../../../../arm-none-eabi/lib/thumb/v8-m.main+fp/hard\libc_nano.a(lib_a-nano-reallocr.o)
 .data          0x00000000        0x0 c:/siliconlabs/simplicitystudio/v5/developer/toolchains/gnu_arm/10.3_2021.10/bin/../lib/gcc/arm-none-eabi/10.3.1/../../../../arm-none-eabi/lib/thumb/v8-m.main+fp/hard\libc_nano.a(lib_a-nano-reallocr.o)
 .bss           0x00000000        0x0 c:/siliconlabs/simplicitystudio/v5/developer/toolchains/gnu_arm/10.3_2021.10/bin/../lib/gcc/arm-none-eabi/10.3.1/../../../../arm-none-eabi/lib/thumb/v8-m.main+fp/hard\libc_nano.a(lib_a-nano-reallocr.o)
 .text          0x00000000        0x0 c:/siliconlabs/simplicitystudio/v5/developer/toolchains/gnu_arm/10.3_2021.10/bin/../lib/gcc/arm-none-eabi/10.3.1/../../../../arm-none-eabi/lib/thumb/v8-m.main+fp/hard\libc_nano.a(lib_a-readr.o)
 .data          0x00000000        0x0 c:/siliconlabs/simplicitystudio/v5/developer/toolchains/gnu_arm/10.3_2021.10/bin/../lib/gcc/arm-none-eabi/10.3.1/../../../../arm-none-eabi/lib/thumb/v8-m.main+fp/hard\libc_nano.a(lib_a-readr.o)
 .bss           0x00000000        0x0 c:/siliconlabs/simplicitystudio/v5/developer/toolchains/gnu_arm/10.3_2021.10/bin/../lib/gcc/arm-none-eabi/10.3.1/../../../../arm-none-eabi/lib/thumb/v8-m.main+fp/hard\libc_nano.a(lib_a-readr.o)
 .text          0x00000000        0x0 c:/siliconlabs/simplicitystudio/v5/developer/toolchains/gnu_arm/10.3_2021.10/bin/../lib/gcc/arm-none-eabi/10.3.1/../../../../arm-none-eabi/lib/thumb/v8-m.main+fp/hard\libc_nano.a(lib_a-reent.o)
 .data          0x00000000        0x0 c:/siliconlabs/simplicitystudio/v5/developer/toolchains/gnu_arm/10.3_2021.10/bin/../lib/gcc/arm-none-eabi/10.3.1/../../../../arm-none-eabi/lib/thumb/v8-m.main+fp/hard\libc_nano.a(lib_a-reent.o)
 .bss           0x00000000        0x0 c:/siliconlabs/simplicitystudio/v5/developer/toolchains/gnu_arm/10.3_2021.10/bin/../lib/gcc/arm-none-eabi/10.3.1/../../../../arm-none-eabi/lib/thumb/v8-m.main+fp/hard\libc_nano.a(lib_a-reent.o)
 .text.cleanup_glue
                0x00000000       0x1a c:/siliconlabs/simplicitystudio/v5/developer/toolchains/gnu_arm/10.3_2021.10/bin/../lib/gcc/arm-none-eabi/10.3.1/../../../../arm-none-eabi/lib/thumb/v8-m.main+fp/hard\libc_nano.a(lib_a-reent.o)
 .text._reclaim_reent
                0x00000000       0xb8 c:/siliconlabs/simplicitystudio/v5/developer/toolchains/gnu_arm/10.3_2021.10/bin/../lib/gcc/arm-none-eabi/10.3.1/../../../../arm-none-eabi/lib/thumb/v8-m.main+fp/hard\libc_nano.a(lib_a-reent.o)
 .text          0x00000000        0x0 c:/siliconlabs/simplicitystudio/v5/developer/toolchains/gnu_arm/10.3_2021.10/bin/../lib/gcc/arm-none-eabi/10.3.1/../../../../arm-none-eabi/lib/thumb/v8-m.main+fp/hard\libc_nano.a(lib_a-wctomb_r.o)
 .data          0x00000000        0x0 c:/siliconlabs/simplicitystudio/v5/developer/toolchains/gnu_arm/10.3_2021.10/bin/../lib/gcc/arm-none-eabi/10.3.1/../../../../arm-none-eabi/lib/thumb/v8-m.main+fp/hard\libc_nano.a(lib_a-wctomb_r.o)
 .bss           0x00000000        0x0 c:/siliconlabs/simplicitystudio/v5/developer/toolchains/gnu_arm/10.3_2021.10/bin/../lib/gcc/arm-none-eabi/10.3.1/../../../../arm-none-eabi/lib/thumb/v8-m.main+fp/hard\libc_nano.a(lib_a-wctomb_r.o)
 .text._wctomb_r
                0x00000000       0x14 c:/siliconlabs/simplicitystudio/v5/developer/toolchains/gnu_arm/10.3_2021.10/bin/../lib/gcc/arm-none-eabi/10.3.1/../../../../arm-none-eabi/lib/thumb/v8-m.main+fp/hard\libc_nano.a(lib_a-wctomb_r.o)
 .text          0x00000000        0x0 c:/siliconlabs/simplicitystudio/v5/developer/toolchains/gnu_arm/10.3_2021.10/bin/../lib/gcc/arm-none-eabi/10.3.1/../../../../arm-none-eabi/lib/thumb/v8-m.main+fp/hard\libc_nano.a(lib_a-abort.o)
 .data          0x00000000        0x0 c:/siliconlabs/simplicitystudio/v5/developer/toolchains/gnu_arm/10.3_2021.10/bin/../lib/gcc/arm-none-eabi/10.3.1/../../../../arm-none-eabi/lib/thumb/v8-m.main+fp/hard\libc_nano.a(lib_a-abort.o)
 .bss           0x00000000        0x0 c:/siliconlabs/simplicitystudio/v5/developer/toolchains/gnu_arm/10.3_2021.10/bin/../lib/gcc/arm-none-eabi/10.3.1/../../../../arm-none-eabi/lib/thumb/v8-m.main+fp/hard\libc_nano.a(lib_a-abort.o)
 .text          0x00000000        0x0 c:/siliconlabs/simplicitystudio/v5/developer/toolchains/gnu_arm/10.3_2021.10/bin/../lib/gcc/arm-none-eabi/10.3.1/../../../../arm-none-eabi/lib/thumb/v8-m.main+fp/hard\libc_nano.a(lib_a-nano-msizer.o)
 .data          0x00000000        0x0 c:/siliconlabs/simplicitystudio/v5/developer/toolchains/gnu_arm/10.3_2021.10/bin/../lib/gcc/arm-none-eabi/10.3.1/../../../../arm-none-eabi/lib/thumb/v8-m.main+fp/hard\libc_nano.a(lib_a-nano-msizer.o)
 .bss           0x00000000        0x0 c:/siliconlabs/simplicitystudio/v5/developer/toolchains/gnu_arm/10.3_2021.10/bin/../lib/gcc/arm-none-eabi/10.3.1/../../../../arm-none-eabi/lib/thumb/v8-m.main+fp/hard\libc_nano.a(lib_a-nano-msizer.o)
 .text          0x00000000        0x0 c:/siliconlabs/simplicitystudio/v5/developer/toolchains/gnu_arm/10.3_2021.10/bin/../lib/gcc/arm-none-eabi/10.3.1/../../../../arm-none-eabi/lib/thumb/v8-m.main+fp/hard\libc_nano.a(lib_a-signal.o)
 .data          0x00000000        0x0 c:/siliconlabs/simplicitystudio/v5/developer/toolchains/gnu_arm/10.3_2021.10/bin/../lib/gcc/arm-none-eabi/10.3.1/../../../../arm-none-eabi/lib/thumb/v8-m.main+fp/hard\libc_nano.a(lib_a-signal.o)
 .bss           0x00000000        0x0 c:/siliconlabs/simplicitystudio/v5/developer/toolchains/gnu_arm/10.3_2021.10/bin/../lib/gcc/arm-none-eabi/10.3.1/../../../../arm-none-eabi/lib/thumb/v8-m.main+fp/hard\libc_nano.a(lib_a-signal.o)
 .text._init_signal_r
                0x00000000       0x28 c:/siliconlabs/simplicitystudio/v5/developer/toolchains/gnu_arm/10.3_2021.10/bin/../lib/gcc/arm-none-eabi/10.3.1/../../../../arm-none-eabi/lib/thumb/v8-m.main+fp/hard\libc_nano.a(lib_a-signal.o)
 .text._signal_r
                0x00000000       0x30 c:/siliconlabs/simplicitystudio/v5/developer/toolchains/gnu_arm/10.3_2021.10/bin/../lib/gcc/arm-none-eabi/10.3.1/../../../../arm-none-eabi/lib/thumb/v8-m.main+fp/hard\libc_nano.a(lib_a-signal.o)
 .text.__sigtramp_r
                0x00000000       0x48 c:/siliconlabs/simplicitystudio/v5/developer/toolchains/gnu_arm/10.3_2021.10/bin/../lib/gcc/arm-none-eabi/10.3.1/../../../../arm-none-eabi/lib/thumb/v8-m.main+fp/hard\libc_nano.a(lib_a-signal.o)
 .text.signal   0x00000000       0x10 c:/siliconlabs/simplicitystudio/v5/developer/toolchains/gnu_arm/10.3_2021.10/bin/../lib/gcc/arm-none-eabi/10.3.1/../../../../arm-none-eabi/lib/thumb/v8-m.main+fp/hard\libc_nano.a(lib_a-signal.o)
 .text._init_signal
                0x00000000        0xc c:/siliconlabs/simplicitystudio/v5/developer/toolchains/gnu_arm/10.3_2021.10/bin/../lib/gcc/arm-none-eabi/10.3.1/../../../../arm-none-eabi/lib/thumb/v8-m.main+fp/hard\libc_nano.a(lib_a-signal.o)
 .text.__sigtramp
                0x00000000       0x10 c:/siliconlabs/simplicitystudio/v5/developer/toolchains/gnu_arm/10.3_2021.10/bin/../lib/gcc/arm-none-eabi/10.3.1/../../../../arm-none-eabi/lib/thumb/v8-m.main+fp/hard\libc_nano.a(lib_a-signal.o)
 .text          0x00000000        0x0 c:/siliconlabs/simplicitystudio/v5/developer/toolchains/gnu_arm/10.3_2021.10/bin/../lib/gcc/arm-none-eabi/10.3.1/../../../../arm-none-eabi/lib/thumb/v8-m.main+fp/hard\libc_nano.a(lib_a-signalr.o)
 .data          0x00000000        0x0 c:/siliconlabs/simplicitystudio/v5/developer/toolchains/gnu_arm/10.3_2021.10/bin/../lib/gcc/arm-none-eabi/10.3.1/../../../../arm-none-eabi/lib/thumb/v8-m.main+fp/hard\libc_nano.a(lib_a-signalr.o)
 .bss           0x00000000        0x0 c:/siliconlabs/simplicitystudio/v5/developer/toolchains/gnu_arm/10.3_2021.10/bin/../lib/gcc/arm-none-eabi/10.3.1/../../../../arm-none-eabi/lib/thumb/v8-m.main+fp/hard\libc_nano.a(lib_a-signalr.o)
 .data          0x00000000        0x0 c:/siliconlabs/simplicitystudio/v5/developer/toolchains/gnu_arm/10.3_2021.10/bin/../lib/gcc/arm-none-eabi/10.3.1/thumb/v8-m.main+fp/hard\libgcc.a(_arm_unorddf2.o)
 .bss           0x00000000        0x0 c:/siliconlabs/simplicitystudio/v5/developer/toolchains/gnu_arm/10.3_2021.10/bin/../lib/gcc/arm-none-eabi/10.3.1/thumb/v8-m.main+fp/hard\libgcc.a(_arm_unorddf2.o)
 .text          0x00000000        0x0 c:/siliconlabs/simplicitystudio/v5/developer/toolchains/gnu_arm/10.3_2021.10/bin/../lib/gcc/arm-none-eabi/10.3.1/thumb/v8-m.main+fp/hard/crtend.o
 .data          0x00000000        0x0 c:/siliconlabs/simplicitystudio/v5/developer/toolchains/gnu_arm/10.3_2021.10/bin/../lib/gcc/arm-none-eabi/10.3.1/thumb/v8-m.main+fp/hard/crtend.o
 .bss           0x00000000        0x0 c:/siliconlabs/simplicitystudio/v5/developer/toolchains/gnu_arm/10.3_2021.10/bin/../lib/gcc/arm-none-eabi/10.3.1/thumb/v8-m.main+fp/hard/crtend.o
 .rodata        0x00000000       0x24 c:/siliconlabs/simplicitystudio/v5/developer/toolchains/gnu_arm/10.3_2021.10/bin/../lib/gcc/arm-none-eabi/10.3.1/thumb/v8-m.main+fp/hard/crtend.o
 .eh_frame      0x00000000        0x4 c:/siliconlabs/simplicitystudio/v5/developer/toolchains/gnu_arm/10.3_2021.10/bin/../lib/gcc/arm-none-eabi/10.3.1/thumb/v8-m.main+fp/hard/crtend.o
 .ARM.attributes
                0x00000000       0x38 c:/siliconlabs/simplicitystudio/v5/developer/toolchains/gnu_arm/10.3_2021.10/bin/../lib/gcc/arm-none-eabi/10.3.1/thumb/v8-m.main+fp/hard/crtend.o
 .text          0x00000000        0x0 c:/siliconlabs/simplicitystudio/v5/developer/toolchains/gnu_arm/10.3_2021.10/bin/../lib/gcc/arm-none-eabi/10.3.1/thumb/v8-m.main+fp/hard/crtn.o
 .data          0x00000000        0x0 c:/siliconlabs/simplicitystudio/v5/developer/toolchains/gnu_arm/10.3_2021.10/bin/../lib/gcc/arm-none-eabi/10.3.1/thumb/v8-m.main+fp/hard/crtn.o
 .bss           0x00000000        0x0 c:/siliconlabs/simplicitystudio/v5/developer/toolchains/gnu_arm/10.3_2021.10/bin/../lib/gcc/arm-none-eabi/10.3.1/thumb/v8-m.main+fp/hard/crtn.o

Memory Configuration

Name             Origin             Length             Attributes
FLASH            0x08000000         0x0017e000         xr
RAM              0x20000000         0x00040000         xrw
*default*        0x00000000         0xffffffff

Linker script and memory map

LOAD c:/siliconlabs/simplicitystudio/v5/developer/toolchains/gnu_arm/10.3_2021.10/bin/../lib/gcc/arm-none-eabi/10.3.1/thumb/v8-m.main+fp/hard/crti.o
LOAD c:/siliconlabs/simplicitystudio/v5/developer/toolchains/gnu_arm/10.3_2021.10/bin/../lib/gcc/arm-none-eabi/10.3.1/thumb/v8-m.main+fp/hard/crtbegin.o
LOAD c:/siliconlabs/simplicitystudio/v5/developer/toolchains/gnu_arm/10.3_2021.10/bin/../lib/gcc/arm-none-eabi/10.3.1/../../../../arm-none-eabi/lib/thumb/v8-m.main+fp/hard/crt0.o
START GROUP
LOAD ./ADC_lib.o
LOAD ./app.o
LOAD ./bh1750.o
LOAD ./i2c_scan.o
LOAD ./lora_uart.o
LOAD ./main.o
LOAD ./pms7003.o
LOAD ./autogen/sl_board_default_init.o
LOAD ./autogen/sl_device_init_clocks.o
LOAD ./autogen/sl_event_handler.o
LOAD ./autogen/sl_i2cspm_init.o
LOAD ./autogen/sl_iostream_handles.o
LOAD ./autogen/sl_iostream_init_eusart_instances.o
LOAD ./autogen/sl_iostream_init_usart_instances.o
LOAD ./gecko_sdk_4.2.3/app/common/util/app_log/app_log.o
LOAD ./gecko_sdk_4.2.3/hardware/board/src/sl_board_control_gpio.o
LOAD ./gecko_sdk_4.2.3/hardware/board/src/sl_board_init.o
LOAD ./gecko_sdk_4.2.3/hardware/driver/bmp280/bosch/BMP280_driver/bmp280.o
LOAD ./gecko_sdk_4.2.3/hardware/driver/bmp280/src/sl_bmp280.o
LOAD ./gecko_sdk_4.2.3/platform/Device/SiliconLabs/EFR32MG24/Source/startup_efr32mg24.o
LOAD ./gecko_sdk_4.2.3/platform/Device/SiliconLabs/EFR32MG24/Source/system_efr32mg24.o
LOAD ./gecko_sdk_4.2.3/platform/common/src/sl_assert.o
LOAD ./gecko_sdk_4.2.3/platform/common/src/sl_slist.o
LOAD ./gecko_sdk_4.2.3/platform/common/src/sl_string.o
LOAD ./gecko_sdk_4.2.3/platform/common/toolchain/src/sl_memory.o
LOAD ./gecko_sdk_4.2.3/platform/driver/i2cspm/src/sl_i2cspm.o
LOAD ./gecko_sdk_4.2.3/platform/emdrv/dmadrv/src/dmadrv.o
LOAD ./gecko_sdk_4.2.3/platform/emlib/src/em_burtc.o
LOAD ./gecko_sdk_4.2.3/platform/emlib/src/em_cmu.o
LOAD ./gecko_sdk_4.2.3/platform/emlib/src/em_core.o
LOAD ./gecko_sdk_4.2.3/platform/emlib/src/em_emu.o
LOAD ./gecko_sdk_4.2.3/platform/emlib/src/em_eusart.o
LOAD ./gecko_sdk_4.2.3/platform/emlib/src/em_gpio.o
LOAD ./gecko_sdk_4.2.3/platform/emlib/src/em_i2c.o
LOAD ./gecko_sdk_4.2.3/platform/emlib/src/em_iadc.o
LOAD ./gecko_sdk_4.2.3/platform/emlib/src/em_ldma.o
LOAD ./gecko_sdk_4.2.3/platform/emlib/src/em_msc.o
LOAD ./gecko_sdk_4.2.3/platform/emlib/src/em_system.o
LOAD ./gecko_sdk_4.2.3/platform/emlib/src/em_timer.o
LOAD ./gecko_sdk_4.2.3/platform/emlib/src/em_usart.o
LOAD ./gecko_sdk_4.2.3/platform/peripheral/src/peripheral_sysrtc.o
LOAD ./gecko_sdk_4.2.3/platform/service/device_init/src/sl_device_init_dcdc_s2.o
LOAD ./gecko_sdk_4.2.3/platform/service/device_init/src/sl_device_init_emu_s2.o
LOAD ./gecko_sdk_4.2.3/platform/service/device_init/src/sl_device_init_hfxo_s2.o
LOAD ./gecko_sdk_4.2.3/platform/service/device_init/src/sl_device_init_lfxo_s2.o
LOAD ./gecko_sdk_4.2.3/platform/service/device_init/src/sl_device_init_nvic.o
LOAD ./gecko_sdk_4.2.3/platform/service/iostream/src/sl_iostream.o
LOAD ./gecko_sdk_4.2.3/platform/service/iostream/src/sl_iostream_eusart.o
LOAD ./gecko_sdk_4.2.3/platform/service/iostream/src/sl_iostream_retarget_stdio.o
LOAD ./gecko_sdk_4.2.3/platform/service/iostream/src/sl_iostream_stdlib_config.o
LOAD ./gecko_sdk_4.2.3/platform/service/iostream/src/sl_iostream_uart.o
LOAD ./gecko_sdk_4.2.3/platform/service/iostream/src/sl_iostream_usart.o
LOAD ./gecko_sdk_4.2.3/platform/service/sleeptimer/src/sl_sleeptimer.o
LOAD ./gecko_sdk_4.2.3/platform/service/sleeptimer/src/sl_sleeptimer_hal_burtc.o
LOAD ./gecko_sdk_4.2.3/platform/service/sleeptimer/src/sl_sleeptimer_hal_sysrtc.o
LOAD ./gecko_sdk_4.2.3/platform/service/sleeptimer/src/sl_sleeptimer_hal_timer.o
LOAD ./gecko_sdk_4.2.3/platform/service/system/src/sl_system_init.o
LOAD ./gecko_sdk_4.2.3/platform/service/system/src/sl_system_process_action.o
LOAD ./gecko_sdk_4.2.3/platform/service/udelay/src/sl_udelay.o
LOAD ./gecko_sdk_4.2.3/platform/service/udelay/src/sl_udelay_armv6m_gcc.o
LOAD c:/siliconlabs/simplicitystudio/v5/developer/toolchains/gnu_arm/10.3_2021.10/bin/../lib/gcc/arm-none-eabi/10.3.1/thumb/v8-m.main+fp/hard\libgcc.a
LOAD c:/siliconlabs/simplicitystudio/v5/developer/toolchains/gnu_arm/10.3_2021.10/bin/../lib/gcc/arm-none-eabi/10.3.1/../../../../arm-none-eabi/lib/thumb/v8-m.main+fp/hard\libc_nano.a
LOAD c:/siliconlabs/simplicitystudio/v5/developer/toolchains/gnu_arm/10.3_2021.10/bin/../lib/gcc/arm-none-eabi/10.3.1/../../../../arm-none-eabi/lib/thumb/v8-m.main+fp/hard\libm.a
LOAD c:/siliconlabs/simplicitystudio/v5/developer/toolchains/gnu_arm/10.3_2021.10/bin/../lib/gcc/arm-none-eabi/10.3.1/../../../../arm-none-eabi/lib/thumb/v8-m.main+fp/hard\libnosys.a
END GROUP
START GROUP
LOAD c:/siliconlabs/simplicitystudio/v5/developer/toolchains/gnu_arm/10.3_2021.10/bin/../lib/gcc/arm-none-eabi/10.3.1/thumb/v8-m.main+fp/hard\libgcc.a
LOAD c:/siliconlabs/simplicitystudio/v5/developer/toolchains/gnu_arm/10.3_2021.10/bin/../lib/gcc/arm-none-eabi/10.3.1/../../../../arm-none-eabi/lib/thumb/v8-m.main+fp/hard\libc_nano.a
LOAD c:/siliconlabs/simplicitystudio/v5/developer/toolchains/gnu_arm/10.3_2021.10/bin/../lib/gcc/arm-none-eabi/10.3.1/../../../../arm-none-eabi/lib/thumb/v8-m.main+fp/hard\libnosys.a
END GROUP
START GROUP
LOAD c:/siliconlabs/simplicitystudio/v5/developer/toolchains/gnu_arm/10.3_2021.10/bin/../lib/gcc/arm-none-eabi/10.3.1/thumb/v8-m.main+fp/hard\libgcc.a
LOAD c:/siliconlabs/simplicitystudio/v5/developer/toolchains/gnu_arm/10.3_2021.10/bin/../lib/gcc/arm-none-eabi/10.3.1/../../../../arm-none-eabi/lib/thumb/v8-m.main+fp/hard\libg_nano.a
LOAD c:/siliconlabs/simplicitystudio/v5/developer/toolchains/gnu_arm/10.3_2021.10/bin/../lib/gcc/arm-none-eabi/10.3.1/../../../../arm-none-eabi/lib/thumb/v8-m.main+fp/hard\libc_nano.a
END GROUP
START GROUP
LOAD c:/siliconlabs/simplicitystudio/v5/developer/toolchains/gnu_arm/10.3_2021.10/bin/../lib/gcc/arm-none-eabi/10.3.1/thumb/v8-m.main+fp/hard\libgcc.a
LOAD c:/siliconlabs/simplicitystudio/v5/developer/toolchains/gnu_arm/10.3_2021.10/bin/../lib/gcc/arm-none-eabi/10.3.1/../../../../arm-none-eabi/lib/thumb/v8-m.main+fp/hard\libc_nano.a
END GROUP
LOAD c:/siliconlabs/simplicitystudio/v5/developer/toolchains/gnu_arm/10.3_2021.10/bin/../lib/gcc/arm-none-eabi/10.3.1/thumb/v8-m.main+fp/hard/crtend.o
LOAD c:/siliconlabs/simplicitystudio/v5/developer/toolchains/gnu_arm/10.3_2021.10/bin/../lib/gcc/arm-none-eabi/10.3.1/thumb/v8-m.main+fp/hard/crtn.o

.text           0x08000000     0xaefc
                0x08000000                linker_vectors_begin = .
 *(.vectors)
 .vectors       0x08000000      0x170 ./gecko_sdk_4.2.3/platform/Device/SiliconLabs/EFR32MG24/Source/startup_efr32mg24.o
                0x08000000                __Vectors
                0x08000170                linker_vectors_end = .
                0x08000170                __Vectors_End = .
                0x08000170                __Vectors_Size = (__Vectors_End - __Vectors)
                0x08000170                linker_code_begin = .
 *(SORT_BY_ALIGNMENT(.text*))
 .text          0x08000170        0x8 ./gecko_sdk_4.2.3/platform/service/udelay/src/sl_udelay_armv6m_gcc.o
                0x08000170                sli_delay_loop
 .text.IADC_IRQHandler
                0x08000178       0x80 ./ADC_lib.o
                0x08000178                IADC_IRQHandler
 .text.ADC_read
                0x080001f8       0x78 ./ADC_lib.o
                0x080001f8                ADC_read
 .text.ADC_read_bat
                0x08000270       0x4c ./ADC_lib.o
                0x08000270                ADC_read_bat
 *fill*         0x080002bc        0x4 
 .text._dtoa_r  0x080002c0      0xbd8 c:/siliconlabs/simplicitystudio/v5/developer/toolchains/gnu_arm/10.3_2021.10/bin/../lib/gcc/arm-none-eabi/10.3.1/../../../../arm-none-eabi/lib/thumb/v8-m.main+fp/hard\libc_nano.a(lib_a-dtoa.o)
                0x080002c0                _dtoa_r
 .text          0x08000e98       0x40 c:/siliconlabs/simplicitystudio/v5/developer/toolchains/gnu_arm/10.3_2021.10/bin/../lib/gcc/arm-none-eabi/10.3.1/thumb/v8-m.main+fp/hard/crtbegin.o
 .text          0x08000ed8       0x7c c:/siliconlabs/simplicitystudio/v5/developer/toolchains/gnu_arm/10.3_2021.10/bin/../lib/gcc/arm-none-eabi/10.3.1/../../../../arm-none-eabi/lib/thumb/v8-m.main+fp/hard/crt0.o
                0x08000ed8                _stack_init
                0x08000ee0                _start
                0x08000ee0                _mainCRTStartup
 .text.initIADC
                0x08000f54      0x178 ./ADC_lib.o
                0x08000f54                initIADC
 .text.ADC_init
                0x080010cc       0x18 ./ADC_lib.o
                0x080010cc                ADC_init
 .text.on_timeout
                0x080010e4        0xc ./app.o
 .text.app_init
                0x080010f0       0x74 ./app.o
                0x080010f0                app_init
 .text.app_process_action
                0x08001164       0x88 ./app.o
                0x08001164                app_process_action
 .text.i2c_bus_write_nolock.constprop.0
                0x080011ec       0x30 ./bh1750.o
 .text.bh1750_init
                0x0800121c       0x18 ./bh1750.o
                0x0800121c                bh1750_init
 .text.bh1750_measure_illuminance
                0x08001234       0x4c ./bh1750.o
                0x08001234                bh1750_measure_illuminance
 .text.i2c_scan_init
                0x08001280       0x2c ./i2c_scan.o
                0x08001280                i2c_scan_init
 .text.i2c_scan_process
                0x080012ac       0x7c ./i2c_scan.o
                0x080012ac                i2c_scan_process
 .text.lora_send
                0x08001328       0xb4 ./lora_uart.o
                0x08001328                lora_send
 .text.receive  0x080013dc       0x58 ./pms7003.o
                0x080013dc                receive
 .text.read_pms
                0x08001434       0x84 ./pms7003.o
                0x08001434                read_pms
 .text.pms7003_init
                0x080014b8       0x38 ./pms7003.o
                0x080014b8                pms7003_init
 .text.pms7003_process
                0x080014f0       0x2c ./pms7003.o
                0x080014f0                pms7003_process
 .text.sl_device_init_clocks
                0x0800151c       0xac ./autogen/sl_device_init_clocks.o
                0x0800151c                sl_device_init_clocks
 .text.sl_i2cspm_init_instances
                0x080015c8       0x24 ./autogen/sl_i2cspm_init.o
                0x080015c8                sl_i2cspm_init_instances
 .text.sl_iostream_eusart_init_mikroe
                0x080015ec       0xbc ./autogen/sl_iostream_init_eusart_instances.o
                0x080015ec                sl_iostream_eusart_init_mikroe
 .text.EUSART1_RX_IRQHandler
                0x080016a8        0xc ./autogen/sl_iostream_init_eusart_instances.o
                0x080016a8                EUSART1_RX_IRQHandler
 .text.sl_iostream_usart_init_vcom
                0x080016b4       0x9c ./autogen/sl_iostream_init_usart_instances.o
                0x080016b4                sl_iostream_usart_init_vcom
 .text.sl_iostream_usart_init_instances
                0x08001750       0x1c ./autogen/sl_iostream_init_usart_instances.o
                0x08001750                sl_iostream_usart_init_instances
 .text.USART0_RX_IRQHandler
                0x0800176c        0xc ./autogen/sl_iostream_init_usart_instances.o
                0x0800176c                USART0_RX_IRQHandler
 .text.app_log_init
                0x08001778       0x38 ./gecko_sdk_4.2.3/app/common/util/app_log/app_log.o
                0x08001778                app_log_init
 .text.bmp280_read_uncomp_temperature
                0x080017b0       0x50 ./gecko_sdk_4.2.3/hardware/driver/bmp280/bosch/BMP280_driver/bmp280.o
                0x080017b0                bmp280_read_uncomp_temperature
 .text.bmp280_compensate_temperature_int32
                0x08001800       0x3c ./gecko_sdk_4.2.3/hardware/driver/bmp280/bosch/BMP280_driver/bmp280.o
                0x08001800                bmp280_compensate_temperature_int32
 .text.bmp280_read_uncomp_pressure
                0x0800183c       0x50 ./gecko_sdk_4.2.3/hardware/driver/bmp280/bosch/BMP280_driver/bmp280.o
                0x0800183c                bmp280_read_uncomp_pressure
 .text.bmp280_read_uncomp_pressure_temperature
                0x0800188c       0x6c ./gecko_sdk_4.2.3/hardware/driver/bmp280/bosch/BMP280_driver/bmp280.o
                0x0800188c                bmp280_read_uncomp_pressure_temperature
 .text.bmp280_read_uncomp_humidity
                0x080018f8       0x38 ./gecko_sdk_4.2.3/hardware/driver/bmp280/bosch/BMP280_driver/bmp280.o
                0x080018f8                bmp280_read_uncomp_humidity
 .text.bmp280_compensate_humidity_int32
                0x08001930       0x74 ./gecko_sdk_4.2.3/hardware/driver/bmp280/bosch/BMP280_driver/bmp280.o
                0x08001930                bmp280_compensate_humidity_int32
 .text.bmp280_get_calib_param
                0x080019a4       0x98 ./gecko_sdk_4.2.3/hardware/driver/bmp280/bosch/BMP280_driver/bmp280.o
                0x080019a4                bmp280_get_calib_param
 .text.bmp280_get_calib_hum
                0x08001a3c       0x74 ./gecko_sdk_4.2.3/hardware/driver/bmp280/bosch/BMP280_driver/bmp280.o
                0x08001a3c                bmp280_get_calib_hum
 .text.bmp280_init
                0x08001ab0       0x68 ./gecko_sdk_4.2.3/hardware/driver/bmp280/bosch/BMP280_driver/bmp280.o
                0x08001ab0                bmp280_init
 .text.bmp280_set_power_mode
                0x08001b18       0x44 ./gecko_sdk_4.2.3/hardware/driver/bmp280/bosch/BMP280_driver/bmp280.o
                0x08001b18                bmp280_set_power_mode
 .text.bmp280_set_work_mode
                0x08001b5c       0xec ./gecko_sdk_4.2.3/hardware/driver/bmp280/bosch/BMP280_driver/bmp280.o
                0x08001b5c                bmp280_set_work_mode
 .text.bmp280_compensate_pressure_int64
                0x08001c48      0x15c ./gecko_sdk_4.2.3/hardware/driver/bmp280/bosch/BMP280_driver/bmp280.o
                0x08001c48                bmp280_compensate_pressure_int64
 .text.bmp280_compute_wait_time
                0x08001da4       0x44 ./gecko_sdk_4.2.3/hardware/driver/bmp280/bosch/BMP280_driver/bmp280.o
                0x08001da4                bmp280_compute_wait_time
 .text.bmp280_get_forced_uncomp_pressure_temperature
                0x08001de8       0x6c ./gecko_sdk_4.2.3/hardware/driver/bmp280/bosch/BMP280_driver/bmp280.o
                0x08001de8                bmp280_get_forced_uncomp_pressure_temperature
 .text.i2c_bus_read
                0x08001e54       0x44 ./gecko_sdk_4.2.3/hardware/driver/bmp280/src/sl_bmp280.o
 .text.i2c_bus_write
                0x08001e98       0x44 ./gecko_sdk_4.2.3/hardware/driver/bmp280/src/sl_bmp280.o
 .text.sl_bmp280_init
                0x08001edc       0x9c ./gecko_sdk_4.2.3/hardware/driver/bmp280/src/sl_bmp280.o
                0x08001edc                sl_bmp280_init
 .text.sl_bmp280_measure_temperature
                0x08001f78       0x54 ./gecko_sdk_4.2.3/hardware/driver/bmp280/src/sl_bmp280.o
                0x08001f78                sl_bmp280_measure_temperature
 .text.sl_bmp280_measure_pressure
                0x08001fcc       0x64 ./gecko_sdk_4.2.3/hardware/driver/bmp280/src/sl_bmp280.o
                0x08001fcc                sl_bmp280_measure_pressure
 .text.sl_bmp280_measure_humidity
                0x08002030       0x34 ./gecko_sdk_4.2.3/hardware/driver/bmp280/src/sl_bmp280.o
                0x08002030                sl_bmp280_measure_humidity
 .text.Reset_Handler
                0x08002064       0x60 ./gecko_sdk_4.2.3/platform/Device/SiliconLabs/EFR32MG24/Source/startup_efr32mg24.o
                0x08002064                Reset_Handler
 .text.SystemInit
                0x080020c4       0x68 ./gecko_sdk_4.2.3/platform/Device/SiliconLabs/EFR32MG24/Source/system_efr32mg24.o
                0x080020c4                SystemInit
 .text.SystemHFRCODPLLClockGet
                0x0800212c        0xc ./gecko_sdk_4.2.3/platform/Device/SiliconLabs/EFR32MG24/Source/system_efr32mg24.o
                0x0800212c                SystemHFRCODPLLClockGet
 .text.SystemSYSCLKGet
                0x08002138       0x34 ./gecko_sdk_4.2.3/platform/Device/SiliconLabs/EFR32MG24/Source/system_efr32mg24.o
                0x08002138                SystemSYSCLKGet
 .text.SystemHCLKGet
                0x0800216c       0x24 ./gecko_sdk_4.2.3/platform/Device/SiliconLabs/EFR32MG24/Source/system_efr32mg24.o
                0x0800216c                SystemHCLKGet
 .text.SystemMaxCoreClockGet
                0x08002190        0x8 ./gecko_sdk_4.2.3/platform/Device/SiliconLabs/EFR32MG24/Source/system_efr32mg24.o
                0x08002190                SystemMaxCoreClockGet
 .text.SystemHFXOClockGet
                0x08002198        0xc ./gecko_sdk_4.2.3/platform/Device/SiliconLabs/EFR32MG24/Source/system_efr32mg24.o
                0x08002198                SystemHFXOClockGet
 .text.SystemHFXOClockSet
                0x080021a4       0x20 ./gecko_sdk_4.2.3/platform/Device/SiliconLabs/EFR32MG24/Source/system_efr32mg24.o
                0x080021a4                SystemHFXOClockSet
 .text.SystemFSRCOClockGet
                0x080021c4        0x8 ./gecko_sdk_4.2.3/platform/Device/SiliconLabs/EFR32MG24/Source/system_efr32mg24.o
                0x080021c4                SystemFSRCOClockGet
 .text.SystemHFRCOEM23ClockGet
                0x080021cc       0x84 ./gecko_sdk_4.2.3/platform/Device/SiliconLabs/EFR32MG24/Source/system_efr32mg24.o
                0x080021cc                SystemHFRCOEM23ClockGet
 .text.SystemLFXOClockGet
                0x08002250        0xc ./gecko_sdk_4.2.3/platform/Device/SiliconLabs/EFR32MG24/Source/system_efr32mg24.o
                0x08002250                SystemLFXOClockGet
 .text._sbrk    0x0800225c       0x20 ./gecko_sdk_4.2.3/platform/common/toolchain/src/sl_memory.o
                0x0800225c                _sbrk
 .text.I2CSPM_Init
                0x0800227c      0x16c ./gecko_sdk_4.2.3/platform/driver/i2cspm/src/sl_i2cspm.o
                0x0800227c                I2CSPM_Init
 .text.I2CSPM_Transfer
                0x080023e8       0x20 ./gecko_sdk_4.2.3/platform/driver/i2cspm/src/sl_i2cspm.o
                0x080023e8                I2CSPM_Transfer
 .text.StartTransfer
                0x08002408      0x17c ./gecko_sdk_4.2.3/platform/emdrv/dmadrv/src/dmadrv.o
 .text.DMADRV_AllocateChannel
                0x08002584       0x60 ./gecko_sdk_4.2.3/platform/emdrv/dmadrv/src/dmadrv.o
                0x08002584                DMADRV_AllocateChannel
 .text.DMADRV_DeInit
                0x080025e4       0x44 ./gecko_sdk_4.2.3/platform/emdrv/dmadrv/src/dmadrv.o
                0x080025e4                DMADRV_DeInit
 .text.DMADRV_FreeChannel
                0x08002628       0x4c ./gecko_sdk_4.2.3/platform/emdrv/dmadrv/src/dmadrv.o
                0x08002628                DMADRV_FreeChannel
 .text.DMADRV_Init
                0x08002674       0x68 ./gecko_sdk_4.2.3/platform/emdrv/dmadrv/src/dmadrv.o
                0x08002674                DMADRV_Init
 .text.DMADRV_PauseTransfer
                0x080026dc       0x40 ./gecko_sdk_4.2.3/platform/emdrv/dmadrv/src/dmadrv.o
                0x080026dc                DMADRV_PauseTransfer
 .text.DMADRV_ResumeTransfer
                0x0800271c       0x40 ./gecko_sdk_4.2.3/platform/emdrv/dmadrv/src/dmadrv.o
                0x0800271c                DMADRV_ResumeTransfer
 .text.DMADRV_StopTransfer
                0x0800275c       0x40 ./gecko_sdk_4.2.3/platform/emdrv/dmadrv/src/dmadrv.o
                0x0800275c                DMADRV_StopTransfer
 .text.DMADRV_TransferCompletePending
                0x0800279c       0x50 ./gecko_sdk_4.2.3/platform/emdrv/dmadrv/src/dmadrv.o
                0x0800279c                DMADRV_TransferCompletePending
 .text.DMADRV_TransferDone
                0x080027ec       0x44 ./gecko_sdk_4.2.3/platform/emdrv/dmadrv/src/dmadrv.o
                0x080027ec                DMADRV_TransferDone
 .text.LDMA_IRQHandler
                0x08002830       0x74 ./gecko_sdk_4.2.3/platform/emdrv/dmadrv/src/dmadrv.o
                0x08002830                LDMA_IRQHandler
 .text.EMU_VScaleGet
                0x080028a4       0x18 ./gecko_sdk_4.2.3/platform/emlib/src/em_cmu.o
 .text.traceClkGet
                0x080028bc       0x54 ./gecko_sdk_4.2.3/platform/emlib/src/em_cmu.o
 .text.em01GrpaClkGet
                0x08002910       0x70 ./gecko_sdk_4.2.3/platform/emlib/src/em_cmu.o
 .text.em01GrpcClkGet
                0x08002980       0x70 ./gecko_sdk_4.2.3/platform/emlib/src/em_cmu.o
 .text.iadcClkGet
                0x080029f0       0x60 ./gecko_sdk_4.2.3/platform/emlib/src/em_cmu.o
 .text.eusart0ClkGet
                0x08002a50       0x70 ./gecko_sdk_4.2.3/platform/emlib/src/em_cmu.o
 .text.em23GrpaClkGet
                0x08002ac0       0x54 ./gecko_sdk_4.2.3/platform/emlib/src/em_cmu.o
 .text.vdac0ClkGet
                0x08002b14       0x70 ./gecko_sdk_4.2.3/platform/emlib/src/em_cmu.o
 .text.vdac1ClkGet
                0x08002b84       0x70 ./gecko_sdk_4.2.3/platform/emlib/src/em_cmu.o
 .text.pcnt0ClkGet
                0x08002bf4       0x4c ./gecko_sdk_4.2.3/platform/emlib/src/em_cmu.o
 .text.wdog0ClkGet
                0x08002c40       0x60 ./gecko_sdk_4.2.3/platform/emlib/src/em_cmu.o
 .text.wdog1ClkGet
                0x08002ca0       0x60 ./gecko_sdk_4.2.3/platform/emlib/src/em_cmu.o
 .text.sysrtcClkGet
                0x08002d00       0x54 ./gecko_sdk_4.2.3/platform/emlib/src/em_cmu.o
 .text.em4GrpaClkGet
                0x08002d54       0x54 ./gecko_sdk_4.2.3/platform/emlib/src/em_cmu.o
 .text.CMU_ClockDivGet
                0x08002da8       0x78 ./gecko_sdk_4.2.3/platform/emlib/src/em_cmu.o
                0x08002da8                CMU_ClockDivGet
 .text.flashWaitStateControl
                0x08002e20       0x58 ./gecko_sdk_4.2.3/platform/emlib/src/em_cmu.o
 .text.CMU_ClockEnable
                0x08002e78       0x58 ./gecko_sdk_4.2.3/platform/emlib/src/em_cmu.o
                0x08002e78                CMU_ClockEnable
 .text.CMU_ClockFreqGet
                0x08002ed0      0x200 ./gecko_sdk_4.2.3/platform/emlib/src/em_cmu.o
                0x08002ed0                CMU_ClockFreqGet
 .text.rhclkPrescOptimize
                0x080030d0       0x20 ./gecko_sdk_4.2.3/platform/emlib/src/em_cmu.o
 .text.CMU_ClockSelectGet
                0x080030f0      0x22c ./gecko_sdk_4.2.3/platform/emlib/src/em_cmu.o
                0x080030f0                CMU_ClockSelectGet
 .text.sli_em_cmu_HFXOSetForceEnable
                0x0800331c       0x1c ./gecko_sdk_4.2.3/platform/emlib/src/em_cmu.o
                0x0800331c                sli_em_cmu_HFXOSetForceEnable
 .text.CMU_HFXOInit
                0x08003338      0x21c ./gecko_sdk_4.2.3/platform/emlib/src/em_cmu.o
                0x08003338                CMU_HFXOInit
 .text.CMU_HFXOCTuneDeltaGet
                0x08003554        0xc ./gecko_sdk_4.2.3/platform/emlib/src/em_cmu.o
                0x08003554                CMU_HFXOCTuneDeltaGet
 .text.CMU_LFXOInit
                0x08003560       0xc4 ./gecko_sdk_4.2.3/platform/emlib/src/em_cmu.o
                0x08003560                CMU_LFXOInit
 .text.CMU_LFXOPrecisionSet
                0x08003624        0xc ./gecko_sdk_4.2.3/platform/emlib/src/em_cmu.o
                0x08003624                CMU_LFXOPrecisionSet
 .text.CMU_ClockDivSet
                0x08003630      0x12c ./gecko_sdk_4.2.3/platform/emlib/src/em_cmu.o
                0x08003630                CMU_ClockDivSet
 .text.sli_em_cmu_SYSCLKInitPreClockSelect
                0x0800375c       0x20 ./gecko_sdk_4.2.3/platform/emlib/src/em_cmu.o
                0x0800375c                sli_em_cmu_SYSCLKInitPreClockSelect
 .text.pclkDivOptimize
                0x0800377c       0x24 ./gecko_sdk_4.2.3/platform/emlib/src/em_cmu.o
 .text.CMU_ClockSelectSet
                0x080037a0      0x5c0 ./gecko_sdk_4.2.3/platform/emlib/src/em_cmu.o
                0x080037a0                CMU_ClockSelectSet
 .text.EMU_DCDCSync
                0x08003d60       0x10 ./gecko_sdk_4.2.3/platform/emlib/src/em_emu.o
 .text.EMU_EM4Init
                0x08003d70       0x14 ./gecko_sdk_4.2.3/platform/emlib/src/em_emu.o
                0x08003d70                EMU_EM4Init
 .text.EMU_VScaleEM01
                0x08003d84       0xb0 ./gecko_sdk_4.2.3/platform/emlib/src/em_emu.o
                0x08003d84                EMU_VScaleEM01
 .text.EMU_VScaleEM01ByClock
                0x08003e34       0x30 ./gecko_sdk_4.2.3/platform/emlib/src/em_emu.o
                0x08003e34                EMU_VScaleEM01ByClock
 .text.EMU_DCDCModeSet
                0x08003e64       0x6c ./gecko_sdk_4.2.3/platform/emlib/src/em_emu.o
                0x08003e64                EMU_DCDCModeSet
 .text.EMU_DCDCInit
                0x08003ed0       0x70 ./gecko_sdk_4.2.3/platform/emlib/src/em_emu.o
                0x08003ed0                EMU_DCDCInit
 .text.EMU_DCDCSetPFMXModePeakCurrent
                0x08003f40       0x70 ./gecko_sdk_4.2.3/platform/emlib/src/em_emu.o
                0x08003f40                EMU_DCDCSetPFMXModePeakCurrent
 .text.EUSART_Reset
                0x08003fb0       0x54 ./gecko_sdk_4.2.3/platform/emlib/src/em_eusart.o
                0x08003fb0                EUSART_Reset
 .text.EUSART_Enable
                0x08004004       0x6c ./gecko_sdk_4.2.3/platform/emlib/src/em_eusart.o
                0x08004004                EUSART_Enable
 .text.EUSART_BaudrateSet
                0x08004070      0x1d8 ./gecko_sdk_4.2.3/platform/emlib/src/em_eusart.o
                0x08004070                EUSART_BaudrateSet
 .text.EUSART_AsyncInitCommon
                0x08004248      0x260 ./gecko_sdk_4.2.3/platform/emlib/src/em_eusart.o
 .text.EUSART_UartInitHf
                0x080044a8       0x5c ./gecko_sdk_4.2.3/platform/emlib/src/em_eusart.o
                0x080044a8                EUSART_UartInitHf
 .text.EUSART_UartInitLf
                0x08004504       0xbc ./gecko_sdk_4.2.3/platform/emlib/src/em_eusart.o
                0x08004504                EUSART_UartInitLf
 .text.GPIO_PinOutSet
                0x080045c0       0x44 ./gecko_sdk_4.2.3/platform/emlib/src/em_gpio.o
 .text.GPIO_PinOutClear
                0x08004604       0x44 ./gecko_sdk_4.2.3/platform/emlib/src/em_gpio.o
 .text.GPIO_PinModeSet
                0x08004648       0x9c ./gecko_sdk_4.2.3/platform/emlib/src/em_gpio.o
                0x08004648                GPIO_PinModeSet
 .text.I2C_BusFreqSet
                0x080046e4       0xe4 ./gecko_sdk_4.2.3/platform/emlib/src/em_i2c.o
                0x080046e4                I2C_BusFreqSet
 .text.I2C_Enable
                0x080047c8       0x38 ./gecko_sdk_4.2.3/platform/emlib/src/em_i2c.o
                0x080047c8                I2C_Enable
 .text.I2C_Init
                0x08004800       0x64 ./gecko_sdk_4.2.3/platform/emlib/src/em_i2c.o
                0x08004800                I2C_Init
 .text.I2C_Transfer
                0x08004864      0x224 ./gecko_sdk_4.2.3/platform/emlib/src/em_i2c.o
                0x08004864                I2C_Transfer
 .text.I2C_TransferInit
                0x08004a88       0xb8 ./gecko_sdk_4.2.3/platform/emlib/src/em_i2c.o
                0x08004a88                I2C_TransferInit
 .text.IADC_disable
                0x08004b40       0x1c ./gecko_sdk_4.2.3/platform/emlib/src/em_iadc.o
 .text.IADC_initScan
                0x08004b5c       0xe0 ./gecko_sdk_4.2.3/platform/emlib/src/em_iadc.o
                0x08004b5c                IADC_initScan
 .text.IADC_calcTimebase
                0x08004c3c       0x64 ./gecko_sdk_4.2.3/platform/emlib/src/em_iadc.o
                0x08004c3c                IADC_calcTimebase
 .text.IADC_calcSrcClkPrescale
                0x08004ca0       0x5c ./gecko_sdk_4.2.3/platform/emlib/src/em_iadc.o
                0x08004ca0                IADC_calcSrcClkPrescale
 .text.IADC_calcAdcClkPrescale
                0x08004cfc       0x74 ./gecko_sdk_4.2.3/platform/emlib/src/em_iadc.o
                0x08004cfc                IADC_calcAdcClkPrescale
 .text.IADC_getReferenceVoltage
                0x08004d70       0x30 ./gecko_sdk_4.2.3/platform/emlib/src/em_iadc.o
                0x08004d70                IADC_getReferenceVoltage
 .text.IADC_init
                0x08004da0      0x540 ./gecko_sdk_4.2.3/platform/emlib/src/em_iadc.o
                0x08004da0                IADC_init
 .text.LDMA_DeInit
                0x080052e0       0x3c ./gecko_sdk_4.2.3/platform/emlib/src/em_ldma.o
                0x080052e0                LDMA_DeInit
 .text.LDMA_EnableChannelRequest
                0x0800531c       0x44 ./gecko_sdk_4.2.3/platform/emlib/src/em_ldma.o
                0x0800531c                LDMA_EnableChannelRequest
 .text.LDMA_Init
                0x08005360       0x94 ./gecko_sdk_4.2.3/platform/emlib/src/em_ldma.o
                0x08005360                LDMA_Init
 .text.LDMA_StartTransfer
                0x080053f4      0x104 ./gecko_sdk_4.2.3/platform/emlib/src/em_ldma.o
                0x080053f4                LDMA_StartTransfer
 .text.LDMA_StopTransfer
                0x080054f8       0x38 ./gecko_sdk_4.2.3/platform/emlib/src/em_ldma.o
                0x080054f8                LDMA_StopTransfer
 .text.LDMA_TransferDone
                0x08005530       0x44 ./gecko_sdk_4.2.3/platform/emlib/src/em_ldma.o
                0x08005530                LDMA_TransferDone
 .text.SYSTEM_ChipRevisionGet
                0x08005574       0x24 ./gecko_sdk_4.2.3/platform/emlib/src/em_system.o
                0x08005574                SYSTEM_ChipRevisionGet
 .text.USART_BaudrateAsyncSet
                0x08005598       0xe0 ./gecko_sdk_4.2.3/platform/emlib/src/em_usart.o
                0x08005598                USART_BaudrateAsyncSet
 .text.USART_Enable
                0x08005678       0x3c ./gecko_sdk_4.2.3/platform/emlib/src/em_usart.o
                0x08005678                USART_Enable
 .text.USART_Reset
                0x080056b4       0x58 ./gecko_sdk_4.2.3/platform/emlib/src/em_usart.o
                0x080056b4                USART_Reset
 .text.USART_InitAsync
                0x0800570c       0xd4 ./gecko_sdk_4.2.3/platform/emlib/src/em_usart.o
                0x0800570c                USART_InitAsync
 .text.sl_sysrtc_wait_ready
                0x080057e0       0x1c ./gecko_sdk_4.2.3/platform/peripheral/src/peripheral_sysrtc.o
 .text.sl_sysrtc_enable
                0x080057fc       0x18 ./gecko_sdk_4.2.3/platform/peripheral/src/peripheral_sysrtc.o
                0x080057fc                sl_sysrtc_enable
 .text.sl_sysrtc_disable
                0x08005814       0x28 ./gecko_sdk_4.2.3/platform/peripheral/src/peripheral_sysrtc.o
                0x08005814                sl_sysrtc_disable
 .text.sl_sysrtc_init
                0x0800583c       0x20 ./gecko_sdk_4.2.3/platform/peripheral/src/peripheral_sysrtc.o
                0x0800583c                sl_sysrtc_init
 .text.sl_sysrtc_init_group
                0x0800585c       0x50 ./gecko_sdk_4.2.3/platform/peripheral/src/peripheral_sysrtc.o
                0x0800585c                sl_sysrtc_init_group
 .text.sl_sysrtc_enable_group_interrupts
                0x080058ac       0x1c ./gecko_sdk_4.2.3/platform/peripheral/src/peripheral_sysrtc.o
                0x080058ac                sl_sysrtc_enable_group_interrupts
 .text.sl_sysrtc_disable_group_interrupts
                0x080058c8       0x1c ./gecko_sdk_4.2.3/platform/peripheral/src/peripheral_sysrtc.o
                0x080058c8                sl_sysrtc_disable_group_interrupts
 .text.sl_sysrtc_clear_group_interrupts
                0x080058e4       0x1c ./gecko_sdk_4.2.3/platform/peripheral/src/peripheral_sysrtc.o
                0x080058e4                sl_sysrtc_clear_group_interrupts
 .text.sl_sysrtc_get_group_interrupts
                0x08005900       0x20 ./gecko_sdk_4.2.3/platform/peripheral/src/peripheral_sysrtc.o
                0x08005900                sl_sysrtc_get_group_interrupts
 .text.sl_sysrtc_get_group_compare_channel_value
                0x08005920       0x30 ./gecko_sdk_4.2.3/platform/peripheral/src/peripheral_sysrtc.o
                0x08005920                sl_sysrtc_get_group_compare_channel_value
 .text.sl_sysrtc_set_group_compare_channel_value
                0x08005950       0x2c ./gecko_sdk_4.2.3/platform/peripheral/src/peripheral_sysrtc.o
                0x08005950                sl_sysrtc_set_group_compare_channel_value
 .text.sl_device_init_dcdc
                0x0800597c       0x2c ./gecko_sdk_4.2.3/platform/service/device_init/src/sl_device_init_dcdc_s2.o
                0x0800597c                sl_device_init_dcdc
 .text.sl_device_init_emu
                0x080059a8       0x24 ./gecko_sdk_4.2.3/platform/service/device_init/src/sl_device_init_emu_s2.o
                0x080059a8                sl_device_init_emu
 .text.sl_device_init_hfxo
                0x080059cc       0x6c ./gecko_sdk_4.2.3/platform/service/device_init/src/sl_device_init_hfxo_s2.o
                0x080059cc                sl_device_init_hfxo
 .text.sl_device_init_lfxo
                0x08005a38       0x2c ./gecko_sdk_4.2.3/platform/service/device_init/src/sl_device_init_lfxo_s2.o
                0x08005a38                sl_device_init_lfxo
 .text.sl_device_init_nvic
                0x08005a64       0x3c ./gecko_sdk_4.2.3/platform/service/device_init/src/sl_device_init_nvic.o
                0x08005a64                sl_device_init_nvic
 .text.sl_iostream_set_default
                0x08005aa0       0x18 ./gecko_sdk_4.2.3/platform/service/iostream/src/sl_iostream.o
                0x08005aa0                sl_iostream_set_default
 .text.sl_iostream_get_default
                0x08005ab8       0x18 ./gecko_sdk_4.2.3/platform/service/iostream/src/sl_iostream.o
                0x08005ab8                sl_iostream_get_default
 .text.sl_iostream_eusart_init
                0x08005ad0      0x22c ./gecko_sdk_4.2.3/platform/service/iostream/src/sl_iostream_eusart.o
                0x08005ad0                sl_iostream_eusart_init
 .text._write   0x08005cfc       0x1c ./gecko_sdk_4.2.3/platform/service/iostream/src/sl_iostream_retarget_stdio.o
                0x08005cfc                _write
 .text.sl_iostream_stdlib_disable_buffering
                0x08005d18       0x14 ./gecko_sdk_4.2.3/platform/service/iostream/src/sl_iostream_stdlib_config.o
                0x08005d18                sl_iostream_stdlib_disable_buffering
 .text.get_write_ptr
                0x08005d2c       0x40 ./gecko_sdk_4.2.3/platform/service/iostream/src/sl_iostream_uart.o
 .text.dma_irq_handler
                0x08005d6c       0x74 ./gecko_sdk_4.2.3/platform/service/iostream/src/sl_iostream_uart.o
 .text.uart_read
                0x08005de0      0x1f0 ./gecko_sdk_4.2.3/platform/service/iostream/src/sl_iostream_uart.o
 .text.uart_deinit
                0x08005fd0       0x98 ./gecko_sdk_4.2.3/platform/service/iostream/src/sl_iostream_uart.o
 .text.uart_write
                0x08006068       0xc0 ./gecko_sdk_4.2.3/platform/service/iostream/src/sl_iostream_uart.o
 .text.sli_iostream_uart_context_init
                0x08006128       0xf8 ./gecko_sdk_4.2.3/platform/service/iostream/src/sl_iostream_uart.o
                0x08006128                sli_iostream_uart_context_init
 .text.sl_iostream_usart_init
                0x08006220      0x180 ./gecko_sdk_4.2.3/platform/service/iostream/src/sl_iostream_usart.o
                0x08006220                sl_iostream_usart_init
 .text.delta_list_insert_timer
                0x080063a0       0x44 ./gecko_sdk_4.2.3/platform/service/sleeptimer/src/sl_sleeptimer.o
 .text.update_delta_list
                0x080063e4       0x38 ./gecko_sdk_4.2.3/platform/service/sleeptimer/src/sl_sleeptimer.o
 .text.set_comparator_for_next_timer
                0x0800641c       0x5c ./gecko_sdk_4.2.3/platform/service/sleeptimer/src/sl_sleeptimer.o
 .text.create_timer
                0x08006478       0x70 ./gecko_sdk_4.2.3/platform/service/sleeptimer/src/sl_sleeptimer.o
 .text.delta_list_remove_timer
                0x080064e8       0x38 ./gecko_sdk_4.2.3/platform/service/sleeptimer/src/sl_sleeptimer.o
 .text.sl_sleeptimer_init
                0x08006520       0x74 ./gecko_sdk_4.2.3/platform/service/sleeptimer/src/sl_sleeptimer.o
                0x08006520                sl_sleeptimer_init
 .text.sl_sleeptimer_is_timer_running
                0x08006594       0x38 ./gecko_sdk_4.2.3/platform/service/sleeptimer/src/sl_sleeptimer.o
                0x08006594                sl_sleeptimer_is_timer_running
 .text.sl_sleeptimer_get_tick_count64
                0x080065cc       0x34 ./gecko_sdk_4.2.3/platform/service/sleeptimer/src/sl_sleeptimer.o
                0x080065cc                sl_sleeptimer_get_tick_count64
 .text.sl_sleeptimer_ms_to_tick
                0x08006600       0x24 ./gecko_sdk_4.2.3/platform/service/sleeptimer/src/sl_sleeptimer.o
                0x08006600                sl_sleeptimer_ms_to_tick
 .text.sl_sleeptimer_delay_millisecond
                0x08006624       0x38 ./gecko_sdk_4.2.3/platform/service/sleeptimer/src/sl_sleeptimer.o
                0x08006624                sl_sleeptimer_delay_millisecond
 .text.sl_sleeptimer_ms32_to_tick
                0x0800665c       0x3c ./gecko_sdk_4.2.3/platform/service/sleeptimer/src/sl_sleeptimer.o
                0x0800665c                sl_sleeptimer_ms32_to_tick
 .text.sl_sleeptimer_start_periodic_timer_ms
                0x08006698       0x78 ./gecko_sdk_4.2.3/platform/service/sleeptimer/src/sl_sleeptimer.o
                0x08006698                sl_sleeptimer_start_periodic_timer_ms
 .text.process_timer_irq
                0x08006710      0x158 ./gecko_sdk_4.2.3/platform/service/sleeptimer/src/sl_sleeptimer.o
                0x08006710                process_timer_irq
 .text.sl_sysrtc_wait_sync
                0x08006868       0x14 ./gecko_sdk_4.2.3/platform/service/sleeptimer/src/sl_sleeptimer_hal_sysrtc.o
 .text.sleeptimer_hal_init_timer
                0x0800687c       0x64 ./gecko_sdk_4.2.3/platform/service/sleeptimer/src/sl_sleeptimer_hal_sysrtc.o
                0x0800687c                sleeptimer_hal_init_timer
 .text.sleeptimer_hal_get_counter
                0x080068e0       0x10 ./gecko_sdk_4.2.3/platform/service/sleeptimer/src/sl_sleeptimer_hal_sysrtc.o
                0x080068e0                sleeptimer_hal_get_counter
 .text.sleeptimer_hal_set_compare
                0x080068f0       0x70 ./gecko_sdk_4.2.3/platform/service/sleeptimer/src/sl_sleeptimer_hal_sysrtc.o
                0x080068f0                sleeptimer_hal_set_compare
 .text.sleeptimer_hal_disable_int
                0x08006960       0x2c ./gecko_sdk_4.2.3/platform/service/sleeptimer/src/sl_sleeptimer_hal_sysrtc.o
                0x08006960                sleeptimer_hal_disable_int
 .text.sleeptimer_hal_set_int
                0x0800698c       0x10 ./gecko_sdk_4.2.3/platform/service/sleeptimer/src/sl_sleeptimer_hal_sysrtc.o
                0x0800698c                sleeptimer_hal_set_int
 .text.sl_udelay_wait
                0x0800699c       0x58 ./gecko_sdk_4.2.3/platform/service/udelay/src/sl_udelay.o
                0x0800699c                sl_udelay_wait
 .text          0x080069f4      0x378 c:/siliconlabs/simplicitystudio/v5/developer/toolchains/gnu_arm/10.3_2021.10/bin/../lib/gcc/arm-none-eabi/10.3.1/thumb/v8-m.main+fp/hard\libgcc.a(_arm_addsubdf3.o)
                0x080069f4                __aeabi_drsub
                0x080069fc                __aeabi_dsub
                0x080069fc                __subdf3
                0x08006a00                __aeabi_dadd
                0x08006a00                __adddf3
                0x08006c78                __floatunsidf
                0x08006c78                __aeabi_ui2d
                0x08006c98                __floatsidf
                0x08006c98                __aeabi_i2d
                0x08006cbc                __aeabi_f2d
                0x08006cbc                __extendsfdf2
                0x08006d00                __floatundidf
                0x08006d00                __aeabi_ul2d
                0x08006d10                __floatdidf
                0x08006d10                __aeabi_l2d
 .text          0x08006d6c      0x424 c:/siliconlabs/simplicitystudio/v5/developer/toolchains/gnu_arm/10.3_2021.10/bin/../lib/gcc/arm-none-eabi/10.3.1/thumb/v8-m.main+fp/hard\libgcc.a(_arm_muldivdf3.o)
                0x08006d6c                __aeabi_dmul
                0x08006d6c                __muldf3
                0x08006fc0                __divdf3
                0x08006fc0                __aeabi_ddiv
 .text          0x08007190      0x110 c:/siliconlabs/simplicitystudio/v5/developer/toolchains/gnu_arm/10.3_2021.10/bin/../lib/gcc/arm-none-eabi/10.3.1/thumb/v8-m.main+fp/hard\libgcc.a(_arm_cmpdf2.o)
                0x08007190                __gtdf2
                0x08007190                __gedf2
                0x08007198                __ltdf2
                0x08007198                __ledf2
                0x080071a0                __nedf2
                0x080071a0                __eqdf2
                0x080071a0                __cmpdf2
                0x0800721c                __aeabi_cdrcmple
                0x0800722c                __aeabi_cdcmpeq
                0x0800722c                __aeabi_cdcmple
                0x0800723c                __aeabi_dcmpeq
                0x08007250                __aeabi_dcmplt
                0x08007264                __aeabi_dcmple
                0x08007278                __aeabi_dcmpge
                0x0800728c                __aeabi_dcmpgt
 .text          0x080072a0       0x50 c:/siliconlabs/simplicitystudio/v5/developer/toolchains/gnu_arm/10.3_2021.10/bin/../lib/gcc/arm-none-eabi/10.3.1/thumb/v8-m.main+fp/hard\libgcc.a(_arm_fixdfsi.o)
                0x080072a0                __aeabi_d2iz
                0x080072a0                __fixdfsi
 .text          0x080072f0       0xa0 c:/siliconlabs/simplicitystudio/v5/developer/toolchains/gnu_arm/10.3_2021.10/bin/../lib/gcc/arm-none-eabi/10.3.1/thumb/v8-m.main+fp/hard\libgcc.a(_arm_truncdfsf2.o)
                0x080072f0                __truncdfsf2
                0x080072f0                __aeabi_d2f
 .text          0x08007390       0xa0 c:/siliconlabs/simplicitystudio/v5/developer/toolchains/gnu_arm/10.3_2021.10/bin/../lib/gcc/arm-none-eabi/10.3.1/thumb/v8-m.main+fp/hard\libgcc.a(_aeabi_ldivmod.o)
                0x08007390                __aeabi_ldivmod
 .text          0x08007430       0x30 c:/siliconlabs/simplicitystudio/v5/developer/toolchains/gnu_arm/10.3_2021.10/bin/../lib/gcc/arm-none-eabi/10.3.1/thumb/v8-m.main+fp/hard\libgcc.a(_aeabi_uldivmod.o)
                0x08007430                __aeabi_uldivmod
 .text          0x08007460      0x2ec c:/siliconlabs/simplicitystudio/v5/developer/toolchains/gnu_arm/10.3_2021.10/bin/../lib/gcc/arm-none-eabi/10.3.1/thumb/v8-m.main+fp/hard\libgcc.a(_udivmoddi4.o)
                0x08007460                __udivmoddi4
 .text          0x0800774c        0x4 c:/siliconlabs/simplicitystudio/v5/developer/toolchains/gnu_arm/10.3_2021.10/bin/../lib/gcc/arm-none-eabi/10.3.1/thumb/v8-m.main+fp/hard\libgcc.a(_dvmd_tls.o)
                0x0800774c                __aeabi_idiv0
                0x0800774c                __aeabi_ldiv0
 .text.exit     0x08007750       0x28 c:/siliconlabs/simplicitystudio/v5/developer/toolchains/gnu_arm/10.3_2021.10/bin/../lib/gcc/arm-none-eabi/10.3.1/../../../../arm-none-eabi/lib/thumb/v8-m.main+fp/hard\libc_nano.a(lib_a-exit.o)
                0x08007750                exit
 .text.__libc_init_array
                0x08007778       0x48 c:/siliconlabs/simplicitystudio/v5/developer/toolchains/gnu_arm/10.3_2021.10/bin/../lib/gcc/arm-none-eabi/10.3.1/../../../../arm-none-eabi/lib/thumb/v8-m.main+fp/hard\libc_nano.a(lib_a-init.o)
                0x08007778                __libc_init_array
 .text._printf_float
                0x080077c0      0x46c c:/siliconlabs/simplicitystudio/v5/developer/toolchains/gnu_arm/10.3_2021.10/bin/../lib/gcc/arm-none-eabi/10.3.1/../../../../arm-none-eabi/lib/thumb/v8-m.main+fp/hard\libc_nano.a(lib_a-nano-vfprintf_float.o)
                0x080077c0                _printf_float
 .text._printf_i
                0x08007c2c      0x24c c:/siliconlabs/simplicitystudio/v5/developer/toolchains/gnu_arm/10.3_2021.10/bin/../lib/gcc/arm-none-eabi/10.3.1/../../../../arm-none-eabi/lib/thumb/v8-m.main+fp/hard\libc_nano.a(lib_a-nano-vfprintf_i.o)
                0x08007c2c                _printf_i
 .text.printf   0x08007e78       0x30 c:/siliconlabs/simplicitystudio/v5/developer/toolchains/gnu_arm/10.3_2021.10/bin/../lib/gcc/arm-none-eabi/10.3.1/../../../../arm-none-eabi/lib/thumb/v8-m.main+fp/hard\libc_nano.a(lib_a-printf.o)
                0x08007e78                iprintf
                0x08007e78                printf
 .text.setvbuf  0x08007ea8      0x188 c:/siliconlabs/simplicitystudio/v5/developer/toolchains/gnu_arm/10.3_2021.10/bin/../lib/gcc/arm-none-eabi/10.3.1/../../../../arm-none-eabi/lib/thumb/v8-m.main+fp/hard\libc_nano.a(lib_a-setvbuf.o)
                0x08007ea8                setvbuf
 .text.sprintf  0x08008030       0x40 c:/siliconlabs/simplicitystudio/v5/developer/toolchains/gnu_arm/10.3_2021.10/bin/../lib/gcc/arm-none-eabi/10.3.1/../../../../arm-none-eabi/lib/thumb/v8-m.main+fp/hard\libc_nano.a(lib_a-sprintf.o)
                0x08008030                siprintf
                0x08008030                sprintf
 .text.__sflush_r
                0x08008070      0x108 c:/siliconlabs/simplicitystudio/v5/developer/toolchains/gnu_arm/10.3_2021.10/bin/../lib/gcc/arm-none-eabi/10.3.1/../../../../arm-none-eabi/lib/thumb/v8-m.main+fp/hard\libc_nano.a(lib_a-fflush.o)
                0x08008070                __sflush_r
 .text._fflush_r
                0x08008178       0x78 c:/siliconlabs/simplicitystudio/v5/developer/toolchains/gnu_arm/10.3_2021.10/bin/../lib/gcc/arm-none-eabi/10.3.1/../../../../arm-none-eabi/lib/thumb/v8-m.main+fp/hard\libc_nano.a(lib_a-fflush.o)
                0x08008178                _fflush_r
 .text.std      0x080081f0       0x48 c:/siliconlabs/simplicitystudio/v5/developer/toolchains/gnu_arm/10.3_2021.10/bin/../lib/gcc/arm-none-eabi/10.3.1/../../../../arm-none-eabi/lib/thumb/v8-m.main+fp/hard\libc_nano.a(lib_a-findfp.o)
 .text._cleanup_r
                0x08008238        0xc c:/siliconlabs/simplicitystudio/v5/developer/toolchains/gnu_arm/10.3_2021.10/bin/../lib/gcc/arm-none-eabi/10.3.1/../../../../arm-none-eabi/lib/thumb/v8-m.main+fp/hard\libc_nano.a(lib_a-findfp.o)
                0x08008238                _cleanup_r
 .text.__sfp_lock_acquire
                0x08008244        0xc c:/siliconlabs/simplicitystudio/v5/developer/toolchains/gnu_arm/10.3_2021.10/bin/../lib/gcc/arm-none-eabi/10.3.1/../../../../arm-none-eabi/lib/thumb/v8-m.main+fp/hard\libc_nano.a(lib_a-findfp.o)
                0x08008244                __sfp_lock_acquire
 .text.__sfp_lock_release
                0x08008250        0xc c:/siliconlabs/simplicitystudio/v5/developer/toolchains/gnu_arm/10.3_2021.10/bin/../lib/gcc/arm-none-eabi/10.3.1/../../../../arm-none-eabi/lib/thumb/v8-m.main+fp/hard\libc_nano.a(lib_a-findfp.o)
                0x08008250                __sfp_lock_release
 .text.__sinit_lock_acquire
                0x0800825c        0xc c:/siliconlabs/simplicitystudio/v5/developer/toolchains/gnu_arm/10.3_2021.10/bin/../lib/gcc/arm-none-eabi/10.3.1/../../../../arm-none-eabi/lib/thumb/v8-m.main+fp/hard\libc_nano.a(lib_a-findfp.o)
                0x0800825c                __sinit_lock_acquire
 .text.__sinit_lock_release
                0x08008268        0xc c:/siliconlabs/simplicitystudio/v5/developer/toolchains/gnu_arm/10.3_2021.10/bin/../lib/gcc/arm-none-eabi/10.3.1/../../../../arm-none-eabi/lib/thumb/v8-m.main+fp/hard\libc_nano.a(lib_a-findfp.o)
                0x08008268                __sinit_lock_release
 .text.__sinit  0x08008274       0x70 c:/siliconlabs/simplicitystudio/v5/developer/toolchains/gnu_arm/10.3_2021.10/bin/../lib/gcc/arm-none-eabi/10.3.1/../../../../arm-none-eabi/lib/thumb/v8-m.main+fp/hard\libc_nano.a(lib_a-findfp.o)
                0x08008274                __sinit
 .text.__sfp    0x080082e4       0x8c c:/siliconlabs/simplicitystudio/v5/developer/toolchains/gnu_arm/10.3_2021.10/bin/../lib/gcc/arm-none-eabi/10.3.1/../../../../arm-none-eabi/lib/thumb/v8-m.main+fp/hard\libc_nano.a(lib_a-findfp.o)
                0x080082e4                __sfp
 .text._localeconv_r
                0x08008370        0x8 c:/siliconlabs/simplicitystudio/v5/developer/toolchains/gnu_arm/10.3_2021.10/bin/../lib/gcc/arm-none-eabi/10.3.1/../../../../arm-none-eabi/lib/thumb/v8-m.main+fp/hard\libc_nano.a(lib_a-localeconv.o)
                0x08008370                _localeconv_r
 .text.__smakebuf_r
                0x08008378       0x80 c:/siliconlabs/simplicitystudio/v5/developer/toolchains/gnu_arm/10.3_2021.10/bin/../lib/gcc/arm-none-eabi/10.3.1/../../../../arm-none-eabi/lib/thumb/v8-m.main+fp/hard\libc_nano.a(lib_a-makebuf.o)
                0x08008378                __smakebuf_r
 .text.malloc   0x080083f8       0x10 c:/siliconlabs/simplicitystudio/v5/developer/toolchains/gnu_arm/10.3_2021.10/bin/../lib/gcc/arm-none-eabi/10.3.1/../../../../arm-none-eabi/lib/thumb/v8-m.main+fp/hard\libc_nano.a(lib_a-malloc.o)
                0x080083f8                malloc
 .text._Balloc  0x08008408       0x80 c:/siliconlabs/simplicitystudio/v5/developer/toolchains/gnu_arm/10.3_2021.10/bin/../lib/gcc/arm-none-eabi/10.3.1/../../../../arm-none-eabi/lib/thumb/v8-m.main+fp/hard\libc_nano.a(lib_a-mprec.o)
                0x08008408                _Balloc
 .text._Bfree   0x08008488       0x44 c:/siliconlabs/simplicitystudio/v5/developer/toolchains/gnu_arm/10.3_2021.10/bin/../lib/gcc/arm-none-eabi/10.3.1/../../../../arm-none-eabi/lib/thumb/v8-m.main+fp/hard\libc_nano.a(lib_a-mprec.o)
                0x08008488                _Bfree
 .text.__multadd
                0x080084cc       0x90 c:/siliconlabs/simplicitystudio/v5/developer/toolchains/gnu_arm/10.3_2021.10/bin/../lib/gcc/arm-none-eabi/10.3.1/../../../../arm-none-eabi/lib/thumb/v8-m.main+fp/hard\libc_nano.a(lib_a-mprec.o)
                0x080084cc                __multadd
 .text.__i2b    0x0800855c       0x2c c:/siliconlabs/simplicitystudio/v5/developer/toolchains/gnu_arm/10.3_2021.10/bin/../lib/gcc/arm-none-eabi/10.3.1/../../../../arm-none-eabi/lib/thumb/v8-m.main+fp/hard\libc_nano.a(lib_a-mprec.o)
                0x0800855c                __i2b
 .text.__multiply
                0x08008588      0x150 c:/siliconlabs/simplicitystudio/v5/developer/toolchains/gnu_arm/10.3_2021.10/bin/../lib/gcc/arm-none-eabi/10.3.1/../../../../arm-none-eabi/lib/thumb/v8-m.main+fp/hard\libc_nano.a(lib_a-mprec.o)
                0x08008588                __multiply
 .text.__pow5mult
                0x080086d8       0xb4 c:/siliconlabs/simplicitystudio/v5/developer/toolchains/gnu_arm/10.3_2021.10/bin/../lib/gcc/arm-none-eabi/10.3.1/../../../../arm-none-eabi/lib/thumb/v8-m.main+fp/hard\libc_nano.a(lib_a-mprec.o)
                0x080086d8                __pow5mult
 .text.__lshift
                0x0800878c       0xe0 c:/siliconlabs/simplicitystudio/v5/developer/toolchains/gnu_arm/10.3_2021.10/bin/../lib/gcc/arm-none-eabi/10.3.1/../../../../arm-none-eabi/lib/thumb/v8-m.main+fp/hard\libc_nano.a(lib_a-mprec.o)
                0x0800878c                __lshift
 .text.__mdiff  0x0800886c      0x120 c:/siliconlabs/simplicitystudio/v5/developer/toolchains/gnu_arm/10.3_2021.10/bin/../lib/gcc/arm-none-eabi/10.3.1/../../../../arm-none-eabi/lib/thumb/v8-m.main+fp/hard\libc_nano.a(lib_a-mprec.o)
                0x0800886c                __mdiff
 .text.__d2b    0x0800898c       0xb8 c:/siliconlabs/simplicitystudio/v5/developer/toolchains/gnu_arm/10.3_2021.10/bin/../lib/gcc/arm-none-eabi/10.3.1/../../../../arm-none-eabi/lib/thumb/v8-m.main+fp/hard\libc_nano.a(lib_a-mprec.o)
                0x0800898c                __d2b
 .text._free_r  0x08008a44       0x98 c:/siliconlabs/simplicitystudio/v5/developer/toolchains/gnu_arm/10.3_2021.10/bin/../lib/gcc/arm-none-eabi/10.3.1/../../../../arm-none-eabi/lib/thumb/v8-m.main+fp/hard\libc_nano.a(lib_a-nano-freer.o)
                0x08008a44                _free_r
 .text.sbrk_aligned
                0x08008adc       0x40 c:/siliconlabs/simplicitystudio/v5/developer/toolchains/gnu_arm/10.3_2021.10/bin/../lib/gcc/arm-none-eabi/10.3.1/../../../../arm-none-eabi/lib/thumb/v8-m.main+fp/hard\libc_nano.a(lib_a-nano-mallocr.o)
 .text._malloc_r
                0x08008b1c       0xe8 c:/siliconlabs/simplicitystudio/v5/developer/toolchains/gnu_arm/10.3_2021.10/bin/../lib/gcc/arm-none-eabi/10.3.1/../../../../arm-none-eabi/lib/thumb/v8-m.main+fp/hard\libc_nano.a(lib_a-nano-mallocr.o)
                0x08008b1c                _malloc_r
 .text._svfprintf_r
                0x08008c04      0x200 c:/siliconlabs/simplicitystudio/v5/developer/toolchains/gnu_arm/10.3_2021.10/bin/../lib/gcc/arm-none-eabi/10.3.1/../../../../arm-none-eabi/lib/thumb/v8-m.main+fp/hard\libc_nano.a(lib_a-nano-svfprintf.o)
                0x08008c04                _svfiprintf_r
                0x08008c04                _svfprintf_r
 .text._vfprintf_r
                0x08008e04      0x260 c:/siliconlabs/simplicitystudio/v5/developer/toolchains/gnu_arm/10.3_2021.10/bin/../lib/gcc/arm-none-eabi/10.3.1/../../../../arm-none-eabi/lib/thumb/v8-m.main+fp/hard\libc_nano.a(lib_a-nano-vfprintf.o)
                0x08008e04                _vfprintf_r
                0x08008e04                _vfiprintf_r
 .text._sbrk_r  0x08009064       0x20 c:/siliconlabs/simplicitystudio/v5/developer/toolchains/gnu_arm/10.3_2021.10/bin/../lib/gcc/arm-none-eabi/10.3.1/../../../../arm-none-eabi/lib/thumb/v8-m.main+fp/hard\libc_nano.a(lib_a-sbrkr.o)
                0x08009064                _sbrk_r
 .text.__swbuf_r
                0x08009084       0xa4 c:/siliconlabs/simplicitystudio/v5/developer/toolchains/gnu_arm/10.3_2021.10/bin/../lib/gcc/arm-none-eabi/10.3.1/../../../../arm-none-eabi/lib/thumb/v8-m.main+fp/hard\libc_nano.a(lib_a-wbuf.o)
                0x08009084                __swbuf_r
 .text._write_r
                0x08009128       0x24 c:/siliconlabs/simplicitystudio/v5/developer/toolchains/gnu_arm/10.3_2021.10/bin/../lib/gcc/arm-none-eabi/10.3.1/../../../../arm-none-eabi/lib/thumb/v8-m.main+fp/hard\libc_nano.a(lib_a-writer.o)
                0x08009128                _write_r
 .text.__swsetup_r
                0x0800914c       0xdc c:/siliconlabs/simplicitystudio/v5/developer/toolchains/gnu_arm/10.3_2021.10/bin/../lib/gcc/arm-none-eabi/10.3.1/../../../../arm-none-eabi/lib/thumb/v8-m.main+fp/hard\libc_nano.a(lib_a-wsetup.o)
                0x0800914c                __swsetup_r
 .text.__assert_func
                0x08009228       0x3c c:/siliconlabs/simplicitystudio/v5/developer/toolchains/gnu_arm/10.3_2021.10/bin/../lib/gcc/arm-none-eabi/10.3.1/../../../../arm-none-eabi/lib/thumb/v8-m.main+fp/hard\libc_nano.a(lib_a-assert.o)
                0x08009228                __assert_func
 .text._close_r
                0x08009264       0x20 c:/siliconlabs/simplicitystudio/v5/developer/toolchains/gnu_arm/10.3_2021.10/bin/../lib/gcc/arm-none-eabi/10.3.1/../../../../arm-none-eabi/lib/thumb/v8-m.main+fp/hard\libc_nano.a(lib_a-closer.o)
                0x08009264                _close_r
 .text.fprintf  0x08009284       0x24 c:/siliconlabs/simplicitystudio/v5/developer/toolchains/gnu_arm/10.3_2021.10/bin/../lib/gcc/arm-none-eabi/10.3.1/../../../../arm-none-eabi/lib/thumb/v8-m.main+fp/hard\libc_nano.a(lib_a-fprintf.o)
                0x08009284                fiprintf
                0x08009284                fprintf
 .text._fstat_r
                0x080092a8       0x24 c:/siliconlabs/simplicitystudio/v5/developer/toolchains/gnu_arm/10.3_2021.10/bin/../lib/gcc/arm-none-eabi/10.3.1/../../../../arm-none-eabi/lib/thumb/v8-m.main+fp/hard\libc_nano.a(lib_a-fstatr.o)
                0x080092a8                _fstat_r
 .text._isatty_r
                0x080092cc       0x20 c:/siliconlabs/simplicitystudio/v5/developer/toolchains/gnu_arm/10.3_2021.10/bin/../lib/gcc/arm-none-eabi/10.3.1/../../../../arm-none-eabi/lib/thumb/v8-m.main+fp/hard\libc_nano.a(lib_a-isattyr.o)
                0x080092cc                _isatty_r
 .text._lseek_r
                0x080092ec       0x24 c:/siliconlabs/simplicitystudio/v5/developer/toolchains/gnu_arm/10.3_2021.10/bin/../lib/gcc/arm-none-eabi/10.3.1/../../../../arm-none-eabi/lib/thumb/v8-m.main+fp/hard\libc_nano.a(lib_a-lseekr.o)
                0x080092ec                _lseek_r
 .text.__malloc_lock
                0x08009310        0xc c:/siliconlabs/simplicitystudio/v5/developer/toolchains/gnu_arm/10.3_2021.10/bin/../lib/gcc/arm-none-eabi/10.3.1/../../../../arm-none-eabi/lib/thumb/v8-m.main+fp/hard\libc_nano.a(lib_a-mlock.o)
                0x08009310                __malloc_lock
 .text.__malloc_unlock
                0x0800931c        0xc c:/siliconlabs/simplicitystudio/v5/developer/toolchains/gnu_arm/10.3_2021.10/bin/../lib/gcc/arm-none-eabi/10.3.1/../../../../arm-none-eabi/lib/thumb/v8-m.main+fp/hard\libc_nano.a(lib_a-mlock.o)
                0x0800931c                __malloc_unlock
 .text._read_r  0x08009328       0x24 c:/siliconlabs/simplicitystudio/v5/developer/toolchains/gnu_arm/10.3_2021.10/bin/../lib/gcc/arm-none-eabi/10.3.1/../../../../arm-none-eabi/lib/thumb/v8-m.main+fp/hard\libc_nano.a(lib_a-readr.o)
                0x08009328                _read_r
 .text.raise    0x0800934c       0x10 c:/siliconlabs/simplicitystudio/v5/developer/toolchains/gnu_arm/10.3_2021.10/bin/../lib/gcc/arm-none-eabi/10.3.1/../../../../arm-none-eabi/lib/thumb/v8-m.main+fp/hard\libc_nano.a(lib_a-signal.o)
                0x0800934c                raise
 .text._kill_r  0x0800935c       0x24 c:/siliconlabs/simplicitystudio/v5/developer/toolchains/gnu_arm/10.3_2021.10/bin/../lib/gcc/arm-none-eabi/10.3.1/../../../../arm-none-eabi/lib/thumb/v8-m.main+fp/hard\libc_nano.a(lib_a-signalr.o)
                0x0800935c                _kill_r
 .text          0x08009380       0x2c c:/siliconlabs/simplicitystudio/v5/developer/toolchains/gnu_arm/10.3_2021.10/bin/../lib/gcc/arm-none-eabi/10.3.1/thumb/v8-m.main+fp/hard\libgcc.a(_arm_unorddf2.o)
                0x08009380                __unorddf2
                0x08009380                __aeabi_dcmpun
 .text.initGPIO
                0x080093ac        0xc ./ADC_lib.o
                0x080093ac                initGPIO
 .text.bh1750_configure
                0x080093b8       0x48 ./bh1750.o
                0x080093b8                bh1750_configure
 .text.startup.main
                0x08009400       0x14 ./main.o
                0x08009400                main
 .text.sl_board_default_init
                0x08009414        0x2 ./autogen/sl_board_default_init.o
                0x08009414                sl_board_default_init
 .text.sl_platform_init
                0x08009416       0x26 ./autogen/sl_event_handler.o
                0x08009416                sl_platform_init
 .text.sl_driver_init
                0x0800943c        0x4 ./autogen/sl_event_handler.o
                0x0800943c                sl_driver_init
 .text.sl_stack_init
                0x08009440        0x2 ./autogen/sl_event_handler.o
                0x08009440                sl_stack_init
 .text.sl_internal_app_init
                0x08009442        0x4 ./autogen/sl_event_handler.o
                0x08009442                sl_internal_app_init
 .text.sl_platform_process_action
                0x08009446        0x2 ./autogen/sl_event_handler.o
                0x08009446                sl_platform_process_action
 .text.sl_service_process_action
                0x08009448        0x2 ./autogen/sl_event_handler.o
                0x08009448                sl_service_process_action
 .text.sl_stack_process_action
                0x0800944a        0x2 ./autogen/sl_event_handler.o
                0x0800944a                sl_stack_process_action
 .text.sl_internal_app_process_action
                0x0800944c        0x2 ./autogen/sl_event_handler.o
                0x0800944c                sl_internal_app_process_action
 .text.sl_iostream_init_instances
                0x0800944e        0xe ./autogen/sl_event_handler.o
                0x0800944e                sl_iostream_init_instances
 .text.sl_service_init
                0x0800945c       0x16 ./autogen/sl_event_handler.o
                0x0800945c                sl_service_init
 .text.sl_iostream_eusart_init_instances
                0x08009472        0x4 ./autogen/sl_iostream_init_eusart_instances.o
                0x08009472                sl_iostream_eusart_init_instances
 .text.EUSART1_TX_IRQHandler
                0x08009476        0x4 ./autogen/sl_iostream_init_eusart_instances.o
                0x08009476                EUSART1_TX_IRQHandler
 .text.USART0_TX_IRQHandler
                0x0800947a        0x4 ./autogen/sl_iostream_init_usart_instances.o
                0x0800947a                USART0_TX_IRQHandler
 .text.sl_board_configure_vcom
                0x0800947e        0x4 ./gecko_sdk_4.2.3/hardware/board/src/sl_board_control_gpio.o
                0x0800947e                sl_board_configure_vcom
 .text.sl_board_init
                0x08009482       0x12 ./gecko_sdk_4.2.3/hardware/board/src/sl_board_init.o
                0x08009482                sl_board_init
 .text.sl_board_preinit
                0x08009494        0x8 ./gecko_sdk_4.2.3/hardware/board/src/sl_board_init.o
                0x08009494                sl_board_preinit
 .text.bmp280_delay_ms
                0x0800949c        0x6 ./gecko_sdk_4.2.3/hardware/driver/bmp280/src/sl_bmp280.o
 .text.Default_Handler
                0x080094a2        0x2 ./gecko_sdk_4.2.3/platform/Device/SiliconLabs/EFR32MG24/Source/startup_efr32mg24.o
                0x080094a2                ULFRCO_IRQHandler
                0x080094a2                AHB2AHB1_IRQHandler
                0x080094a2                SW2_IRQHandler
                0x080094a2                TIMER2_IRQHandler
                0x080094a2                DebugMon_Handler
                0x080094a2                EUSART0_TX_IRQHandler
                0x080094a2                I2C0_IRQHandler
                0x080094a2                LFXO_IRQHandler
                0x080094a2                HardFault_Handler
                0x080094a2                SMU_SECURE_IRQHandler
                0x080094a2                SysTick_Handler
                0x080094a2                SYSRTC_SEQ_IRQHandler
                0x080094a2                EMUEFP_IRQHandler
                0x080094a2                PendSV_Handler
                0x080094a2                NMI_Handler
                0x080094a2                SYNTH_IRQHandler
                0x080094a2                HOSTMAILBOX_IRQHandler
                0x080094a2                HFXO0_IRQHandler
                0x080094a2                I2C1_IRQHandler
                0x080094a2                WDOG0_IRQHandler
                0x080094a2                TIMER3_IRQHandler
                0x080094a2                SYSCFG_IRQHandler
                0x080094a2                RFECA1_IRQHandler
                0x080094a2                EMUDG_IRQHandler
                0x080094a2                MSC_IRQHandler
                0x080094a2                DPLL0_IRQHandler
                0x080094a2                UsageFault_Handler
                0x080094a2                WDOG1_IRQHandler
                0x080094a2                M33CTI1_IRQHandler
                0x080094a2                TIMER4_IRQHandler
                0x080094a2                GPIO_EVEN_IRQHandler
                0x080094a2                VDAC0_IRQHandler
                0x080094a2                SEMBTX_IRQHandler
                0x080094a2                SW0_IRQHandler
                0x080094a2                TIMER0_IRQHandler
                0x080094a2                MVP_IRQHandler
                0x080094a2                LETIMER0_IRQHandler
                0x080094a2                TIMER1_IRQHandler
                0x080094a2                HFRCO0_IRQHandler
                0x080094a2                SecureFault_Handler
                0x080094a2                BUFC_IRQHandler
                0x080094a2                DCDC_IRQHandler
                0x080094a2                MODEM_IRQHandler
                0x080094a2                Default_Handler
                0x080094a2                RAC_SEQ_IRQHandler
                0x080094a2                FRC_PRI_IRQHandler
                0x080094a2                EMU_IRQHandler
                0x080094a2                SW3_IRQHandler
                0x080094a2                KERNEL0_IRQHandler
                0x080094a2                FRC_IRQHandler
                0x080094a2                PCNT0_IRQHandler
                0x080094a2                KERNEL1_IRQHandler
                0x080094a2                AGC_IRQHandler
                0x080094a2                KEYSCAN_IRQHandler
                0x080094a2                sl_app_properties
                0x080094a2                HFRCOEM23_IRQHandler
                0x080094a2                BURTC_IRQHandler
                0x080094a2                SEMBRX_IRQHandler
                0x080094a2                RFECA0_IRQHandler
                0x080094a2                LFRCO_IRQHandler
                0x080094a2                VDAC1_IRQHandler
                0x080094a2                ACMP0_IRQHandler
                0x080094a2                MemManage_Handler
                0x080094a2                AHB2AHB0_IRQHandler
                0x080094a2                SVC_Handler
                0x080094a2                SMU_S_PRIVILEGED_IRQHandler
                0x080094a2                SW1_IRQHandler
                0x080094a2                CMU_IRQHandler
                0x080094a2                EUSART0_RX_IRQHandler
                0x080094a2                RAC_RSM_IRQHandler
                0x080094a2                SETAMPERHOST_IRQHandler
                0x080094a2                GPIO_ODD_IRQHandler
                0x080094a2                AES_IRQHandler
                0x080094a2                M33CTI0_IRQHandler
                0x080094a2                ICACHE0_IRQHandler
                0x080094a2                SMU_NS_PRIVILEGED_IRQHandler
                0x080094a2                FPUEXH_IRQHandler
                0x080094a2                PROTIMER_IRQHandler
                0x080094a2                ACMP1_IRQHandler
                0x080094a2                BusFault_Handler
                0x080094a2                MPAHBRAM_IRQHandler
 .text.SystemCLKIN0Get
                0x080094a4        0x4 ./gecko_sdk_4.2.3/platform/Device/SiliconLabs/EFR32MG24/Source/system_efr32mg24.o
                0x080094a4                SystemCLKIN0Get
 .text.SystemLFRCOClockGet
                0x080094a8        0x6 ./gecko_sdk_4.2.3/platform/Device/SiliconLabs/EFR32MG24/Source/system_efr32mg24.o
                0x080094a8                SystemLFRCOClockGet
 .text.SystemULFRCOClockGet
                0x080094ae        0x6 ./gecko_sdk_4.2.3/platform/Device/SiliconLabs/EFR32MG24/Source/system_efr32mg24.o
                0x080094ae                SystemULFRCOClockGet
 .text.assertEFM
                0x080094b4        0x2 ./gecko_sdk_4.2.3/platform/common/src/sl_assert.o
                0x080094b4                assertEFM
 .text.DMADRV_PeripheralMemory
                0x080094b6       0x34 ./gecko_sdk_4.2.3/platform/emdrv/dmadrv/src/dmadrv.o
                0x080094b6                DMADRV_PeripheralMemory
 .text.BUS_RegMaskedWrite
                0x080094ea       0x22 ./gecko_sdk_4.2.3/platform/emlib/src/em_cmu.o
 .text.waitStateMax
                0x0800950c       0x10 ./gecko_sdk_4.2.3/platform/emlib/src/em_cmu.o
 .text.CMU_UpdateWaitStates
                0x0800951c        0xc ./gecko_sdk_4.2.3/platform/emlib/src/em_cmu.o
                0x0800951c                CMU_UpdateWaitStates
 .text.pclkDivMax
                0x08009528        0xa ./gecko_sdk_4.2.3/platform/emlib/src/em_cmu.o
 .text.sli_em_cmu_SYSCLKInitPostClockSelect
                0x08009532       0x2a ./gecko_sdk_4.2.3/platform/emlib/src/em_cmu.o
                0x08009532                sli_em_cmu_SYSCLKInitPostClockSelect
 .text.CORE_EnterCritical
                0x0800955c        0x8 ./gecko_sdk_4.2.3/platform/emlib/src/em_core.o
                0x0800955c                CORE_EnterCritical
 .text.CORE_ExitCritical
                0x08009564        0x6 ./gecko_sdk_4.2.3/platform/emlib/src/em_core.o
                0x08009564                CORE_ExitCritical
 .text.CORE_EnterAtomic
                0x0800956a        0xc ./gecko_sdk_4.2.3/platform/emlib/src/em_core.o
                0x0800956a                CORE_EnterAtomic
 .text.CORE_ExitAtomic
                0x08009576        0x6 ./gecko_sdk_4.2.3/platform/emlib/src/em_core.o
                0x08009576                CORE_ExitAtomic
 .text.EMU_EFPEM01VScale
                0x0800957c        0x2 ./gecko_sdk_4.2.3/platform/emlib/src/em_emu.o
                0x0800957c                EMU_EFPEM01VScale
 .text.EMU_DCDCUpdatedHook
                0x0800957e        0x2 ./gecko_sdk_4.2.3/platform/emlib/src/em_emu.o
                0x0800957e                EMU_DCDCUpdatedHook
 .text.eusart_sync
                0x08009580        0x8 ./gecko_sdk_4.2.3/platform/emlib/src/em_eusart.o
 .text.EUSART_Disable
                0x08009588       0x34 ./gecko_sdk_4.2.3/platform/emlib/src/em_eusart.o
 .text.EUSART_Tx
                0x080095bc        0xa ./gecko_sdk_4.2.3/platform/emlib/src/em_eusart.o
                0x080095bc                EUSART_Tx
 .text.BUS_RegMaskedWrite
                0x080095c6       0x22 ./gecko_sdk_4.2.3/platform/emlib/src/em_gpio.o
 .text.IADC_ConvertRawDataToResult
                0x080095e8       0x32 ./gecko_sdk_4.2.3/platform/emlib/src/em_iadc.o
 .text.IADC_pullScanFifoResult
                0x0800961a       0x14 ./gecko_sdk_4.2.3/platform/emlib/src/em_iadc.o
                0x0800961a                IADC_pullScanFifoResult
 .text.USART_Tx
                0x0800962e        0xa ./gecko_sdk_4.2.3/platform/emlib/src/em_usart.o
                0x0800962e                USART_Tx
 .text.sl_iostream_write
                0x08009638       0x28 ./gecko_sdk_4.2.3/platform/service/iostream/src/sl_iostream.o
                0x08009638                sl_iostream_write
 .text.sl_iostream_read
                0x08009660       0x32 ./gecko_sdk_4.2.3/platform/service/iostream/src/sl_iostream.o
                0x08009660                sl_iostream_read
 .text.sl_iostream_getchar
                0x08009692        0x8 ./gecko_sdk_4.2.3/platform/service/iostream/src/sl_iostream.o
                0x08009692                sl_iostream_getchar
 .text.eusart_deinit
                0x0800969a       0x70 ./gecko_sdk_4.2.3/platform/service/iostream/src/sl_iostream_eusart.o
 .text.eusart_set_next_byte_detect
                0x0800970a       0x30 ./gecko_sdk_4.2.3/platform/service/iostream/src/sl_iostream_eusart.o
 .text.eusart_tx
                0x0800973a        0xc ./gecko_sdk_4.2.3/platform/service/iostream/src/sl_iostream_eusart.o
 .text.sl_iostream_eusart_irq_handler
                0x08009746       0x72 ./gecko_sdk_4.2.3/platform/service/iostream/src/sl_iostream_eusart.o
                0x08009746                sl_iostream_eusart_irq_handler
 .text._close   0x080097b8        0x4 ./gecko_sdk_4.2.3/platform/service/iostream/src/sl_iostream_retarget_stdio.o
                0x080097b8                _close
 .text._exit    0x080097bc        0x2 ./gecko_sdk_4.2.3/platform/service/iostream/src/sl_iostream_retarget_stdio.o
                0x080097bc                _exit
 .text._fstat   0x080097be        0xa ./gecko_sdk_4.2.3/platform/service/iostream/src/sl_iostream_retarget_stdio.o
                0x080097be                _fstat
 .text._getpid  0x080097c8        0x4 ./gecko_sdk_4.2.3/platform/service/iostream/src/sl_iostream_retarget_stdio.o
                0x080097c8                _getpid
 .text._isatty  0x080097cc        0x4 ./gecko_sdk_4.2.3/platform/service/iostream/src/sl_iostream_retarget_stdio.o
                0x080097cc                _isatty
 .text._kill    0x080097d0        0x6 ./gecko_sdk_4.2.3/platform/service/iostream/src/sl_iostream_retarget_stdio.o
                0x080097d0                _kill
 .text._lseek   0x080097d6        0x4 ./gecko_sdk_4.2.3/platform/service/iostream/src/sl_iostream_retarget_stdio.o
                0x080097d6                _lseek
 .text._read    0x080097da       0x1c ./gecko_sdk_4.2.3/platform/service/iostream/src/sl_iostream_retarget_stdio.o
                0x080097da                _read
 .text.set_auto_cr_lf
                0x080097f6        0x6 ./gecko_sdk_4.2.3/platform/service/iostream/src/sl_iostream_uart.o
 .text.get_auto_cr_lf
                0x080097fc        0x6 ./gecko_sdk_4.2.3/platform/service/iostream/src/sl_iostream_uart.o
 .text.usart_set_next_byte_detect
                0x08009802        0xc ./gecko_sdk_4.2.3/platform/service/iostream/src/sl_iostream_usart.o
 .text.usart_deinit
                0x0800980e       0x78 ./gecko_sdk_4.2.3/platform/service/iostream/src/sl_iostream_usart.o
 .text.usart_tx
                0x08009886        0xc ./gecko_sdk_4.2.3/platform/service/iostream/src/sl_iostream_usart.o
 .text.sl_iostream_usart_irq_handler
                0x08009892       0x70 ./gecko_sdk_4.2.3/platform/service/iostream/src/sl_iostream_usart.o
                0x08009892                sl_iostream_usart_irq_handler
 .text.delay_callback
                0x08009902        0x6 ./gecko_sdk_4.2.3/platform/service/sleeptimer/src/sl_sleeptimer.o
 .text.sl_sleeptimer_start_timer
                0x08009908       0x48 ./gecko_sdk_4.2.3/platform/service/sleeptimer/src/sl_sleeptimer.o
                0x08009908                sl_sleeptimer_start_timer
 .text.sleeptimer_hal_get_compare
                0x08009950        0x8 ./gecko_sdk_4.2.3/platform/service/sleeptimer/src/sl_sleeptimer_hal_sysrtc.o
                0x08009950                sleeptimer_hal_get_compare
 .text.sleeptimer_hal_enable_int
                0x08009958       0x12 ./gecko_sdk_4.2.3/platform/service/sleeptimer/src/sl_sleeptimer_hal_sysrtc.o
                0x08009958                sleeptimer_hal_enable_int
 .text.sli_sleeptimer_hal_is_int_status_set
                0x0800996a       0x22 ./gecko_sdk_4.2.3/platform/service/sleeptimer/src/sl_sleeptimer_hal_sysrtc.o
                0x0800996a                sli_sleeptimer_hal_is_int_status_set
 .text.SYSRTC_APP_IRQHandler
                0x0800998c       0x34 ./gecko_sdk_4.2.3/platform/service/sleeptimer/src/sl_sleeptimer_hal_sysrtc.o
                0x0800998c                SYSRTC_APP_IRQHandler
 .text.sleeptimer_hal_get_timer_frequency
                0x080099c0        0x6 ./gecko_sdk_4.2.3/platform/service/sleeptimer/src/sl_sleeptimer_hal_sysrtc.o
                0x080099c0                sleeptimer_hal_get_timer_frequency
 .text.sl_system_init
                0x080099c6       0x1a ./gecko_sdk_4.2.3/platform/service/system/src/sl_system_init.o
                0x080099c6                sl_system_init
 .text.sl_system_process_action
                0x080099e0       0x16 ./gecko_sdk_4.2.3/platform/service/system/src/sl_system_process_action.o
                0x080099e0                sl_system_process_action
 .text.memcpy   0x080099f6       0x1a c:/siliconlabs/simplicitystudio/v5/developer/toolchains/gnu_arm/10.3_2021.10/bin/../lib/gcc/arm-none-eabi/10.3.1/../../../../arm-none-eabi/lib/thumb/v8-m.main+fp/hard\libc_nano.a(lib_a-memcpy-stub.o)
                0x080099f6                memcpy
 .text.memset   0x08009a10       0x10 c:/siliconlabs/simplicitystudio/v5/developer/toolchains/gnu_arm/10.3_2021.10/bin/../lib/gcc/arm-none-eabi/10.3.1/../../../../arm-none-eabi/lib/thumb/v8-m.main+fp/hard\libc_nano.a(lib_a-memset.o)
                0x08009a10                memset
 .text.__cvt    0x08009a20       0xc4 c:/siliconlabs/simplicitystudio/v5/developer/toolchains/gnu_arm/10.3_2021.10/bin/../lib/gcc/arm-none-eabi/10.3.1/../../../../arm-none-eabi/lib/thumb/v8-m.main+fp/hard\libc_nano.a(lib_a-nano-vfprintf_float.o)
                0x08009a20                __cvt
 .text.__exponent
                0x08009ae4       0x7c c:/siliconlabs/simplicitystudio/v5/developer/toolchains/gnu_arm/10.3_2021.10/bin/../lib/gcc/arm-none-eabi/10.3.1/../../../../arm-none-eabi/lib/thumb/v8-m.main+fp/hard\libc_nano.a(lib_a-nano-vfprintf_float.o)
                0x08009ae4                __exponent
 .text._printf_common
                0x08009b60       0xe0 c:/siliconlabs/simplicitystudio/v5/developer/toolchains/gnu_arm/10.3_2021.10/bin/../lib/gcc/arm-none-eabi/10.3.1/../../../../arm-none-eabi/lib/thumb/v8-m.main+fp/hard\libc_nano.a(lib_a-nano-vfprintf_i.o)
                0x08009b60                _printf_common
 .text          0x08009c40       0x10 c:/siliconlabs/simplicitystudio/v5/developer/toolchains/gnu_arm/10.3_2021.10/bin/../lib/gcc/arm-none-eabi/10.3.1/../../../../arm-none-eabi/lib/thumb/v8-m.main+fp/hard\libc_nano.a(lib_a-strlen.o)
                0x08009c40                strlen
 .text.quorem   0x08009c50      0x122 c:/siliconlabs/simplicitystudio/v5/developer/toolchains/gnu_arm/10.3_2021.10/bin/../lib/gcc/arm-none-eabi/10.3.1/../../../../arm-none-eabi/lib/thumb/v8-m.main+fp/hard\libc_nano.a(lib_a-dtoa.o)
 .text.__sfmoreglue
                0x08009d72       0x2c c:/siliconlabs/simplicitystudio/v5/developer/toolchains/gnu_arm/10.3_2021.10/bin/../lib/gcc/arm-none-eabi/10.3.1/../../../../arm-none-eabi/lib/thumb/v8-m.main+fp/hard\libc_nano.a(lib_a-findfp.o)
                0x08009d72                __sfmoreglue
 .text._fwalk_reent
                0x08009d9e       0x3e c:/siliconlabs/simplicitystudio/v5/developer/toolchains/gnu_arm/10.3_2021.10/bin/../lib/gcc/arm-none-eabi/10.3.1/../../../../arm-none-eabi/lib/thumb/v8-m.main+fp/hard\libc_nano.a(lib_a-fwalk.o)
                0x08009d9e                _fwalk_reent
 .text.__retarget_lock_init_recursive
                0x08009ddc        0x2 c:/siliconlabs/simplicitystudio/v5/developer/toolchains/gnu_arm/10.3_2021.10/bin/../lib/gcc/arm-none-eabi/10.3.1/../../../../arm-none-eabi/lib/thumb/v8-m.main+fp/hard\libc_nano.a(lib_a-lock.o)
                0x08009ddc                __retarget_lock_init_recursive
 .text.__retarget_lock_acquire_recursive
                0x08009dde        0x2 c:/siliconlabs/simplicitystudio/v5/developer/toolchains/gnu_arm/10.3_2021.10/bin/../lib/gcc/arm-none-eabi/10.3.1/../../../../arm-none-eabi/lib/thumb/v8-m.main+fp/hard\libc_nano.a(lib_a-lock.o)
                0x08009dde                __retarget_lock_acquire_recursive
 .text.__retarget_lock_release_recursive
                0x08009de0        0x2 c:/siliconlabs/simplicitystudio/v5/developer/toolchains/gnu_arm/10.3_2021.10/bin/../lib/gcc/arm-none-eabi/10.3.1/../../../../arm-none-eabi/lib/thumb/v8-m.main+fp/hard\libc_nano.a(lib_a-lock.o)
                0x08009de0                __retarget_lock_release_recursive
 .text.__swhatbuf_r
                0x08009de2       0x4a c:/siliconlabs/simplicitystudio/v5/developer/toolchains/gnu_arm/10.3_2021.10/bin/../lib/gcc/arm-none-eabi/10.3.1/../../../../arm-none-eabi/lib/thumb/v8-m.main+fp/hard\libc_nano.a(lib_a-makebuf.o)
                0x08009de2                __swhatbuf_r
 .text.memchr   0x08009e2c       0x1c c:/siliconlabs/simplicitystudio/v5/developer/toolchains/gnu_arm/10.3_2021.10/bin/../lib/gcc/arm-none-eabi/10.3.1/../../../../arm-none-eabi/lib/thumb/v8-m.main+fp/hard\libc_nano.a(lib_a-memchr-stub.o)
                0x08009e2c                memchr
 .text.__hi0bits
                0x08009e48       0x40 c:/siliconlabs/simplicitystudio/v5/developer/toolchains/gnu_arm/10.3_2021.10/bin/../lib/gcc/arm-none-eabi/10.3.1/../../../../arm-none-eabi/lib/thumb/v8-m.main+fp/hard\libc_nano.a(lib_a-mprec.o)
                0x08009e48                __hi0bits
 .text.__lo0bits
                0x08009e88       0x5e c:/siliconlabs/simplicitystudio/v5/developer/toolchains/gnu_arm/10.3_2021.10/bin/../lib/gcc/arm-none-eabi/10.3.1/../../../../arm-none-eabi/lib/thumb/v8-m.main+fp/hard\libc_nano.a(lib_a-mprec.o)
                0x08009e88                __lo0bits
 .text.__mcmp   0x08009ee6       0x38 c:/siliconlabs/simplicitystudio/v5/developer/toolchains/gnu_arm/10.3_2021.10/bin/../lib/gcc/arm-none-eabi/10.3.1/../../../../arm-none-eabi/lib/thumb/v8-m.main+fp/hard\libc_nano.a(lib_a-mprec.o)
                0x08009ee6                __mcmp
 .text._calloc_r
                0x08009f1e       0x2c c:/siliconlabs/simplicitystudio/v5/developer/toolchains/gnu_arm/10.3_2021.10/bin/../lib/gcc/arm-none-eabi/10.3.1/../../../../arm-none-eabi/lib/thumb/v8-m.main+fp/hard\libc_nano.a(lib_a-nano-callocr.o)
                0x08009f1e                _calloc_r
 .text.__ssputs_r
                0x08009f4a       0xb6 c:/siliconlabs/simplicitystudio/v5/developer/toolchains/gnu_arm/10.3_2021.10/bin/../lib/gcc/arm-none-eabi/10.3.1/../../../../arm-none-eabi/lib/thumb/v8-m.main+fp/hard\libc_nano.a(lib_a-nano-svfprintf.o)
                0x08009f4a                __ssputs_r
 .text.__sfputc_r
                0x0800a000       0x2e c:/siliconlabs/simplicitystudio/v5/developer/toolchains/gnu_arm/10.3_2021.10/bin/../lib/gcc/arm-none-eabi/10.3.1/../../../../arm-none-eabi/lib/thumb/v8-m.main+fp/hard\libc_nano.a(lib_a-nano-vfprintf.o)
 .text.__sfputs_r
                0x0800a02e       0x24 c:/siliconlabs/simplicitystudio/v5/developer/toolchains/gnu_arm/10.3_2021.10/bin/../lib/gcc/arm-none-eabi/10.3.1/../../../../arm-none-eabi/lib/thumb/v8-m.main+fp/hard\libc_nano.a(lib_a-nano-vfprintf.o)
                0x0800a02e                __sfputs_r
 .text.__sread  0x0800a052       0x22 c:/siliconlabs/simplicitystudio/v5/developer/toolchains/gnu_arm/10.3_2021.10/bin/../lib/gcc/arm-none-eabi/10.3.1/../../../../arm-none-eabi/lib/thumb/v8-m.main+fp/hard\libc_nano.a(lib_a-stdio.o)
                0x0800a052                __sread
 .text.__swrite
                0x0800a074       0x38 c:/siliconlabs/simplicitystudio/v5/developer/toolchains/gnu_arm/10.3_2021.10/bin/../lib/gcc/arm-none-eabi/10.3.1/../../../../arm-none-eabi/lib/thumb/v8-m.main+fp/hard\libc_nano.a(lib_a-stdio.o)
                0x0800a074                __swrite
 .text.__sseek  0x0800a0ac       0x24 c:/siliconlabs/simplicitystudio/v5/developer/toolchains/gnu_arm/10.3_2021.10/bin/../lib/gcc/arm-none-eabi/10.3.1/../../../../arm-none-eabi/lib/thumb/v8-m.main+fp/hard\libc_nano.a(lib_a-stdio.o)
                0x0800a0ac                __sseek
 .text.__sclose
                0x0800a0d0        0x8 c:/siliconlabs/simplicitystudio/v5/developer/toolchains/gnu_arm/10.3_2021.10/bin/../lib/gcc/arm-none-eabi/10.3.1/../../../../arm-none-eabi/lib/thumb/v8-m.main+fp/hard\libc_nano.a(lib_a-stdio.o)
                0x0800a0d0                __sclose
 .text.__ascii_mbtowc
                0x0800a0d8       0x24 c:/siliconlabs/simplicitystudio/v5/developer/toolchains/gnu_arm/10.3_2021.10/bin/../lib/gcc/arm-none-eabi/10.3.1/../../../../arm-none-eabi/lib/thumb/v8-m.main+fp/hard\libc_nano.a(lib_a-mbtowc_r.o)
                0x0800a0d8                __ascii_mbtowc
 .text.memmove  0x0800a0fc       0x34 c:/siliconlabs/simplicitystudio/v5/developer/toolchains/gnu_arm/10.3_2021.10/bin/../lib/gcc/arm-none-eabi/10.3.1/../../../../arm-none-eabi/lib/thumb/v8-m.main+fp/hard\libc_nano.a(lib_a-memmove.o)
                0x0800a0fc                memmove
 .text._realloc_r
                0x0800a130       0x5e c:/siliconlabs/simplicitystudio/v5/developer/toolchains/gnu_arm/10.3_2021.10/bin/../lib/gcc/arm-none-eabi/10.3.1/../../../../arm-none-eabi/lib/thumb/v8-m.main+fp/hard\libc_nano.a(lib_a-nano-reallocr.o)
                0x0800a130                _realloc_r
 .text.__ascii_wctomb
                0x0800a18e       0x1a c:/siliconlabs/simplicitystudio/v5/developer/toolchains/gnu_arm/10.3_2021.10/bin/../lib/gcc/arm-none-eabi/10.3.1/../../../../arm-none-eabi/lib/thumb/v8-m.main+fp/hard\libc_nano.a(lib_a-wctomb_r.o)
                0x0800a18e                __ascii_wctomb
 .text.abort    0x0800a1a8        0xe c:/siliconlabs/simplicitystudio/v5/developer/toolchains/gnu_arm/10.3_2021.10/bin/../lib/gcc/arm-none-eabi/10.3.1/../../../../arm-none-eabi/lib/thumb/v8-m.main+fp/hard\libc_nano.a(lib_a-abort.o)
                0x0800a1a8                abort
 .text._malloc_usable_size_r
                0x0800a1b6       0x10 c:/siliconlabs/simplicitystudio/v5/developer/toolchains/gnu_arm/10.3_2021.10/bin/../lib/gcc/arm-none-eabi/10.3.1/../../../../arm-none-eabi/lib/thumb/v8-m.main+fp/hard\libc_nano.a(lib_a-nano-msizer.o)
                0x0800a1b6                _malloc_usable_size_r
 .text._raise_r
                0x0800a1c6       0x50 c:/siliconlabs/simplicitystudio/v5/developer/toolchains/gnu_arm/10.3_2021.10/bin/../lib/gcc/arm-none-eabi/10.3.1/../../../../arm-none-eabi/lib/thumb/v8-m.main+fp/hard\libc_nano.a(lib_a-signal.o)
                0x0800a1c6                _raise_r
 .text._getpid_r
                0x0800a216        0x4 c:/siliconlabs/simplicitystudio/v5/developer/toolchains/gnu_arm/10.3_2021.10/bin/../lib/gcc/arm-none-eabi/10.3.1/../../../../arm-none-eabi/lib/thumb/v8-m.main+fp/hard\libc_nano.a(lib_a-signalr.o)
                0x0800a216                _getpid_r
                0x0800a21a                linker_code_end = .
 *(.init)
 *fill*         0x0800a21a        0x2 
 .init          0x0800a21c        0x4 c:/siliconlabs/simplicitystudio/v5/developer/toolchains/gnu_arm/10.3_2021.10/bin/../lib/gcc/arm-none-eabi/10.3.1/thumb/v8-m.main+fp/hard/crti.o
                0x0800a21c                _init
 .init          0x0800a220        0x8 c:/siliconlabs/simplicitystudio/v5/developer/toolchains/gnu_arm/10.3_2021.10/bin/../lib/gcc/arm-none-eabi/10.3.1/thumb/v8-m.main+fp/hard/crtn.o
 *(.fini)
 .fini          0x0800a228        0x4 c:/siliconlabs/simplicitystudio/v5/developer/toolchains/gnu_arm/10.3_2021.10/bin/../lib/gcc/arm-none-eabi/10.3.1/thumb/v8-m.main+fp/hard/crti.o
                0x0800a228                _fini
 .fini          0x0800a22c        0x8 c:/siliconlabs/simplicitystudio/v5/developer/toolchains/gnu_arm/10.3_2021.10/bin/../lib/gcc/arm-none-eabi/10.3.1/thumb/v8-m.main+fp/hard/crtn.o
 *crtbegin.o(.ctors)
 *crtbegin?.o(.ctors)
 *(EXCLUDE_FILE(*crtend.o *crtend?.o) .ctors)
 *(SORT_BY_NAME(.ctors.*))
 *(.ctors)
 *crtbegin.o(.dtors)
 *crtbegin?.o(.dtors)
 *(EXCLUDE_FILE(*crtend.o *crtend?.o) .dtors)
 *(SORT_BY_NAME(.dtors.*))
 *(.dtors)
 *(.rodata*)
 .rodata.ADC_read.str1.1
                0x0800a234        0x9 ./ADC_lib.o
 .rodata.ADC_read_bat.str1.1
                0x0800a23d        0xe ./ADC_lib.o
 *fill*         0x0800a24b        0x1 
 .rodata        0x0800a24c       0x28 ./ADC_lib.o
 .rodata.app_init.str1.1
                0x0800a274       0x27 ./app.o
 .rodata.app_process_action.str1.1
                0x0800a29b        0xa ./app.o
 .rodata.i2c_scan_init.str1.1
                0x0800a2a5       0x23 ./i2c_scan.o
 .rodata.i2c_scan_process.str1.1
                0x0800a2c8       0x33 ./i2c_scan.o
 .rodata.lora_send.str1.1
                0x0800a2fb       0x47 ./lora_uart.o
 .rodata.pms7003_init.str1.1
                0x0800a342       0x20 ./pms7003.o
 .rodata.pms7003_process.str1.1
                0x0800a362       0x23 ./pms7003.o
 .rodata.sl_iostream_eusart_init_mikroe.str1.1
                0x0800a385       0x2f ./autogen/sl_iostream_init_eusart_instances.o
 .rodata        0x0800a3b4       0x20 ./autogen/sl_iostream_init_eusart_instances.o
 .rodata.sl_iostream_usart_init_vcom.str1.1
                0x0800a3d4       0x2e ./autogen/sl_iostream_init_usart_instances.o
 *fill*         0x0800a402        0x2 
 .rodata        0x0800a404       0x1c ./autogen/sl_iostream_init_usart_instances.o
 .rodata        0x0800a420       0x2a ./gecko_sdk_4.2.3/hardware/driver/bmp280/bosch/BMP280_driver/bmp280.o
 .rodata.I2CSPM_Init.str1.1
                0x0800a44a       0xbc ./gecko_sdk_4.2.3/platform/driver/i2cspm/src/sl_i2cspm.o
 .rodata        0x0800a506        0x4 ./gecko_sdk_4.2.3/platform/emdrv/dmadrv/src/dmadrv.o
 .rodata.HFRCODPLLDevinfoGet.str1.1
                0x0800a50a       0x58 ./gecko_sdk_4.2.3/platform/emlib/src/em_cmu.o
 .rodata.CSWTCH.94
                0x0800a562        0x6 ./gecko_sdk_4.2.3/platform/emlib/src/em_cmu.o
 .rodata.CSWTCH.95
                0x0800a568        0x4 ./gecko_sdk_4.2.3/platform/emlib/src/em_cmu.o
 .rodata.EMU_VScaleEM01.str1.1
                0x0800a56c       0x58 ./gecko_sdk_4.2.3/platform/emlib/src/em_emu.o
 .rodata.EUSART_Enable.str1.1
                0x0800a5c4       0x5b ./gecko_sdk_4.2.3/platform/emlib/src/em_eusart.o
 .rodata.GPIO_PinOutSet.str1.1
                0x0800a61f       0x59 ./gecko_sdk_4.2.3/platform/emlib/src/em_gpio.o
 .rodata.GPIO_ExtIntConfig.str1.1
                0x0800a61f       0x59 ./gecko_sdk_4.2.3/platform/emlib/src/em_gpio.o
 .rodata.I2C_BusFreqGet.str1.1
                0x0800a678       0x58 ./gecko_sdk_4.2.3/platform/emlib/src/em_i2c.o
 .rodata.CSWTCH.12
                0x0800a6d0        0xc ./gecko_sdk_4.2.3/platform/emlib/src/em_i2c.o
 .rodata.CSWTCH.13
                0x0800a6dc        0xc ./gecko_sdk_4.2.3/platform/emlib/src/em_i2c.o
 .rodata.i2cNSum
                0x0800a6e8        0x4 ./gecko_sdk_4.2.3/platform/emlib/src/em_i2c.o
 .rodata.IADC_initScan.str1.1
                0x0800a6ec       0x59 ./gecko_sdk_4.2.3/platform/emlib/src/em_iadc.o
 *fill*         0x0800a745        0x3 
 .rodata        0x0800a748       0x18 ./gecko_sdk_4.2.3/platform/emlib/src/em_iadc.o
 .rodata.CSWTCH.53
                0x0800a760        0xa ./gecko_sdk_4.2.3/platform/emlib/src/em_iadc.o
 .rodata.LDMA_EnableChannelRequest.str1.1
                0x0800a76a       0xb1 ./gecko_sdk_4.2.3/platform/emlib/src/em_ldma.o
 .rodata.USART_BaudrateAsyncSet.str1.1
                0x0800a81b       0x5a ./gecko_sdk_4.2.3/platform/emlib/src/em_usart.o
 .rodata.sl_sysrtc_init_group.str1.1
                0x0800a875       0x68 ./gecko_sdk_4.2.3/platform/peripheral/src/peripheral_sysrtc.o
 .rodata        0x0800a8dd        0x7 ./gecko_sdk_4.2.3/platform/service/device_init/src/sl_device_init_dcdc_s2.o
 .rodata        0x0800a8e4       0x28 ./gecko_sdk_4.2.3/platform/service/device_init/src/sl_device_init_hfxo_s2.o
 .rodata        0x0800a90c       0x14 ./gecko_sdk_4.2.3/platform/service/device_init/src/sl_device_init_lfxo_s2.o
 .rodata._write.str1.1
                0x0800a920       0x77 ./gecko_sdk_4.2.3/platform/service/iostream/src/sl_iostream_retarget_stdio.o
 .rodata.get_write_ptr.str1.1
                0x0800a997       0x6d ./gecko_sdk_4.2.3/platform/service/iostream/src/sl_iostream_uart.o
 .rodata.process_timer_irq.str1.1
                0x0800aa04       0x6c ./gecko_sdk_4.2.3/platform/service/sleeptimer/src/sl_sleeptimer.o
 .rodata.sl_udelay_wait.str1.1
                0x0800aa70       0x64 ./gecko_sdk_4.2.3/platform/service/udelay/src/sl_udelay.o
 .rodata._ctype_
                0x0800aad4      0x101 c:/siliconlabs/simplicitystudio/v5/developer/toolchains/gnu_arm/10.3_2021.10/bin/../lib/gcc/arm-none-eabi/10.3.1/../../../../arm-none-eabi/lib/thumb/v8-m.main+fp/hard\libc_nano.a(lib_a-ctype_.o)
                0x0800aad4                _ctype_
 *fill*         0x0800abd5        0x3 
 .rodata._global_impure_ptr
                0x0800abd8        0x4 c:/siliconlabs/simplicitystudio/v5/developer/toolchains/gnu_arm/10.3_2021.10/bin/../lib/gcc/arm-none-eabi/10.3.1/../../../../arm-none-eabi/lib/thumb/v8-m.main+fp/hard\libc_nano.a(lib_a-impure.o)
                0x0800abd8                _global_impure_ptr
 .rodata._printf_float.str1.1
                0x0800abdc       0x10 c:/siliconlabs/simplicitystudio/v5/developer/toolchains/gnu_arm/10.3_2021.10/bin/../lib/gcc/arm-none-eabi/10.3.1/../../../../arm-none-eabi/lib/thumb/v8-m.main+fp/hard\libc_nano.a(lib_a-nano-vfprintf_float.o)
                                 0x12 (size before relaxing)
 .rodata._printf_i.str1.1
                0x0800abec       0x22 c:/siliconlabs/simplicitystudio/v5/developer/toolchains/gnu_arm/10.3_2021.10/bin/../lib/gcc/arm-none-eabi/10.3.1/../../../../arm-none-eabi/lib/thumb/v8-m.main+fp/hard\libc_nano.a(lib_a-nano-vfprintf_i.o)
 .rodata._dtoa_r.str1.1
                0x0800ac0e       0xb3 c:/siliconlabs/simplicitystudio/v5/developer/toolchains/gnu_arm/10.3_2021.10/bin/../lib/gcc/arm-none-eabi/10.3.1/../../../../arm-none-eabi/lib/thumb/v8-m.main+fp/hard\libc_nano.a(lib_a-dtoa.o)
                                 0xb5 (size before relaxing)
 *fill*         0x0800acc1        0x3 
 .rodata.__sf_fake_stderr
                0x0800acc4       0x20 c:/siliconlabs/simplicitystudio/v5/developer/toolchains/gnu_arm/10.3_2021.10/bin/../lib/gcc/arm-none-eabi/10.3.1/../../../../arm-none-eabi/lib/thumb/v8-m.main+fp/hard\libc_nano.a(lib_a-findfp.o)
                0x0800acc4                __sf_fake_stderr
 .rodata.__sf_fake_stdin
                0x0800ace4       0x20 c:/siliconlabs/simplicitystudio/v5/developer/toolchains/gnu_arm/10.3_2021.10/bin/../lib/gcc/arm-none-eabi/10.3.1/../../../../arm-none-eabi/lib/thumb/v8-m.main+fp/hard\libc_nano.a(lib_a-findfp.o)
                0x0800ace4                __sf_fake_stdin
 .rodata.__sf_fake_stdout
                0x0800ad04       0x20 c:/siliconlabs/simplicitystudio/v5/developer/toolchains/gnu_arm/10.3_2021.10/bin/../lib/gcc/arm-none-eabi/10.3.1/../../../../arm-none-eabi/lib/thumb/v8-m.main+fp/hard\libc_nano.a(lib_a-findfp.o)
                0x0800ad04                __sf_fake_stdout
 .rodata._Balloc.str1.1
                0x0800ad24       0x7f c:/siliconlabs/simplicitystudio/v5/developer/toolchains/gnu_arm/10.3_2021.10/bin/../lib/gcc/arm-none-eabi/10.3.1/../../../../arm-none-eabi/lib/thumb/v8-m.main+fp/hard\libc_nano.a(lib_a-mprec.o)
                                 0x96 (size before relaxing)
 .rodata.__multadd.str1.1
                0x0800ada3       0x11 c:/siliconlabs/simplicitystudio/v5/developer/toolchains/gnu_arm/10.3_2021.10/bin/../lib/gcc/arm-none-eabi/10.3.1/../../../../arm-none-eabi/lib/thumb/v8-m.main+fp/hard\libc_nano.a(lib_a-mprec.o)
 *fill*         0x0800ada3        0x5 
 .rodata.__mprec_bigtens
                0x0800ada8       0x28 c:/siliconlabs/simplicitystudio/v5/developer/toolchains/gnu_arm/10.3_2021.10/bin/../lib/gcc/arm-none-eabi/10.3.1/../../../../arm-none-eabi/lib/thumb/v8-m.main+fp/hard\libc_nano.a(lib_a-mprec.o)
                0x0800ada8                __mprec_bigtens
 .rodata.__mprec_tens
                0x0800add0       0xc8 c:/siliconlabs/simplicitystudio/v5/developer/toolchains/gnu_arm/10.3_2021.10/bin/../lib/gcc/arm-none-eabi/10.3.1/../../../../arm-none-eabi/lib/thumb/v8-m.main+fp/hard\libc_nano.a(lib_a-mprec.o)
                0x0800add0                __mprec_tens
 .rodata.p05.0  0x0800ae98        0xc c:/siliconlabs/simplicitystudio/v5/developer/toolchains/gnu_arm/10.3_2021.10/bin/../lib/gcc/arm-none-eabi/10.3.1/../../../../arm-none-eabi/lib/thumb/v8-m.main+fp/hard\libc_nano.a(lib_a-mprec.o)
 .rodata._svfprintf_r.str1.1
                0x0800aea4       0x11 c:/siliconlabs/simplicitystudio/v5/developer/toolchains/gnu_arm/10.3_2021.10/bin/../lib/gcc/arm-none-eabi/10.3.1/../../../../arm-none-eabi/lib/thumb/v8-m.main+fp/hard\libc_nano.a(lib_a-nano-svfprintf.o)
 .rodata._vfprintf_r.str1.1
                0x0800aeb5       0x11 c:/siliconlabs/simplicitystudio/v5/developer/toolchains/gnu_arm/10.3_2021.10/bin/../lib/gcc/arm-none-eabi/10.3.1/../../../../arm-none-eabi/lib/thumb/v8-m.main+fp/hard\libc_nano.a(lib_a-nano-vfprintf.o)
 .rodata.__assert_func.str1.1
                0x0800aeb5       0x3c c:/siliconlabs/simplicitystudio/v5/developer/toolchains/gnu_arm/10.3_2021.10/bin/../lib/gcc/arm-none-eabi/10.3.1/../../../../arm-none-eabi/lib/thumb/v8-m.main+fp/hard\libc_nano.a(lib_a-assert.o)
                                 0x3d (size before relaxing)
 .rodata._setlocale_r.str1.1
                0x0800aef1        0x8 c:/siliconlabs/simplicitystudio/v5/developer/toolchains/gnu_arm/10.3_2021.10/bin/../lib/gcc/arm-none-eabi/10.3.1/../../../../arm-none-eabi/lib/thumb/v8-m.main+fp/hard\libc_nano.a(lib_a-locale.o)
                                  0x9 (size before relaxing)
 .rodata.str1.1
                0x0800aef9        0x2 c:/siliconlabs/simplicitystudio/v5/developer/toolchains/gnu_arm/10.3_2021.10/bin/../lib/gcc/arm-none-eabi/10.3.1/../../../../arm-none-eabi/lib/thumb/v8-m.main+fp/hard\libc_nano.a(lib_a-locale.o)
 *(.eh_frame*)
 *fill*         0x0800aefb        0x1 
 .eh_frame      0x0800aefc        0x0 c:/siliconlabs/simplicitystudio/v5/developer/toolchains/gnu_arm/10.3_2021.10/bin/../lib/gcc/arm-none-eabi/10.3.1/thumb/v8-m.main+fp/hard/crtbegin.o

.glue_7         0x0800aefc        0x0
 .glue_7        0x0800aefc        0x0 linker stubs

.glue_7t        0x0800aefc        0x0
 .glue_7t       0x0800aefc        0x0 linker stubs

.vfp11_veneer   0x0800aefc        0x0
 .vfp11_veneer  0x0800aefc        0x0 linker stubs

.v4_bx          0x0800aefc        0x0
 .v4_bx         0x0800aefc        0x0 linker stubs

.iplt           0x0800aefc        0x0
 .iplt          0x0800aefc        0x0 c:/siliconlabs/simplicitystudio/v5/developer/toolchains/gnu_arm/10.3_2021.10/bin/../lib/gcc/arm-none-eabi/10.3.1/thumb/v8-m.main+fp/hard/crtbegin.o

.ARM.extab
 *(.ARM.extab* .gnu.linkonce.armextab.*)
                0x0800aefc                __exidx_start = .

.ARM.exidx      0x0800aefc        0x8
 *(.ARM.exidx* .gnu.linkonce.armexidx.*)
 .ARM.exidx     0x0800aefc        0x8 c:/siliconlabs/simplicitystudio/v5/developer/toolchains/gnu_arm/10.3_2021.10/bin/../lib/gcc/arm-none-eabi/10.3.1/../../../../arm-none-eabi/lib/thumb/v8-m.main+fp/hard/crt0.o
                                 0x10 (size before relaxing)
 .ARM.exidx     0x0800af04        0x0 c:/siliconlabs/simplicitystudio/v5/developer/toolchains/gnu_arm/10.3_2021.10/bin/../lib/gcc/arm-none-eabi/10.3.1/thumb/v8-m.main+fp/hard\libgcc.a(_udivmoddi4.o)
                                  0x8 (size before relaxing)
                0x0800af04                __exidx_end = .

.rel.dyn        0x0800af04        0x0
 .rel.iplt      0x0800af04        0x0 c:/siliconlabs/simplicitystudio/v5/developer/toolchains/gnu_arm/10.3_2021.10/bin/../lib/gcc/arm-none-eabi/10.3.1/thumb/v8-m.main+fp/hard/crtbegin.o

.copy.table     0x0800af04        0xc
                0x0800af04                . = ALIGN (0x4)
                0x0800af04                __copy_table_start__ = .
                0x0800af04        0x4 LONG 0x800af10 __etext
                0x0800af08        0x4 LONG 0x20001000 __data_start__
                0x0800af0c        0x4 LONG 0x8a ((__data_end__ - __data_start__) / 0x4)
                0x0800af10                __copy_table_end__ = .

.zero.table     0x0800af10        0x0
                0x0800af10                . = ALIGN (0x4)
                0x0800af10                __zero_table_start__ = .
                0x0800af10                __zero_table_end__ = .
                0x0800af10                __etext = .
                0x20000000                . = ORIGIN (RAM)

.stack          0x20000000     0x1000
                0x20000000                __StackLimit = .
 *(.stack*)
 .stack         0x20000000     0x1000 ./gecko_sdk_4.2.3/platform/common/toolchain/src/sl_memory.o
                0x20001000                . = ALIGN (0x4)
                0x20001000                __StackTop = .
                0x20001000                PROVIDE (__stack = __StackTop)

.noinit
 *(.noinit*)

.data           0x20001000      0x228 load address 0x0800af10
                0x20001000                . = ALIGN (0x4)
                0x20001000                __data_start__ = .
 *(vtable)
 *(SORT_BY_ALIGNMENT(.data*))
 .data.init_inst0
                0x20001000       0x14 ./autogen/sl_i2cspm_init.o
                0x20001000                init_inst0
 .data.init_mikroe
                0x20001014       0x14 ./autogen/sl_i2cspm_init.o
                0x20001014                init_mikroe
 .data.sl_i2cspm_inst0
                0x20001028        0x4 ./autogen/sl_i2cspm_init.o
                0x20001028                sl_i2cspm_inst0
 .data.sl_i2cspm_mikroe
                0x2000102c        0x4 ./autogen/sl_i2cspm_init.o
                0x2000102c                sl_i2cspm_mikroe
 .data.sl_iostream_mikroe_handle
                0x20001030        0x4 ./autogen/sl_iostream_init_eusart_instances.o
                0x20001030                sl_iostream_mikroe_handle
 .data.SystemCoreClock
                0x20001034        0x4 ./gecko_sdk_4.2.3/platform/Device/SiliconLabs/EFR32MG24/Source/system_efr32mg24.o
                0x20001034                SystemCoreClock
 .data.SystemHFRCODPLLClock
                0x20001038        0x4 ./gecko_sdk_4.2.3/platform/Device/SiliconLabs/EFR32MG24/Source/system_efr32mg24.o
 .data.SystemHFXOClock
                0x2000103c        0x4 ./gecko_sdk_4.2.3/platform/Device/SiliconLabs/EFR32MG24/Source/system_efr32mg24.o
 .data.SystemLFXOClock
                0x20001040        0x4 ./gecko_sdk_4.2.3/platform/Device/SiliconLabs/EFR32MG24/Source/system_efr32mg24.o
 .data.heap_end.0
                0x20001044        0x4 ./gecko_sdk_4.2.3/platform/common/toolchain/src/sl_memory.o
 .data._impure_ptr
                0x20001048        0x4 c:/siliconlabs/simplicitystudio/v5/developer/toolchains/gnu_arm/10.3_2021.10/bin/../lib/gcc/arm-none-eabi/10.3.1/../../../../arm-none-eabi/lib/thumb/v8-m.main+fp/hard\libc_nano.a(lib_a-impure.o)
                0x20001048                _impure_ptr
 .data.impure_data
                0x2000104c       0x60 c:/siliconlabs/simplicitystudio/v5/developer/toolchains/gnu_arm/10.3_2021.10/bin/../lib/gcc/arm-none-eabi/10.3.1/../../../../arm-none-eabi/lib/thumb/v8-m.main+fp/hard\libc_nano.a(lib_a-impure.o)
 .data.__global_locale
                0x200010ac      0x16c c:/siliconlabs/simplicitystudio/v5/developer/toolchains/gnu_arm/10.3_2021.10/bin/../lib/gcc/arm-none-eabi/10.3.1/../../../../arm-none-eabi/lib/thumb/v8-m.main+fp/hard\libc_nano.a(lib_a-locale.o)
                0x200010ac                __global_locale
 .data.lfxo_precision
                0x20001218        0x2 ./gecko_sdk_4.2.3/platform/emlib/src/em_cmu.o
 .data.level_filter_enabled
                0x2000121a        0x1 ./gecko_sdk_4.2.3/app/common/util/app_log/app_log.o
 .data.level_filter_threshold
                0x2000121b        0x1 ./gecko_sdk_4.2.3/app/common/util/app_log/app_log.o
 .data.level_mask
                0x2000121c        0x1 ./gecko_sdk_4.2.3/app/common/util/app_log/app_log.o
 .data.ctuneDelta
                0x2000121d        0x1 ./gecko_sdk_4.2.3/platform/emlib/src/em_cmu.o
 .data.cc_disabled
                0x2000121e        0x1 ./gecko_sdk_4.2.3/platform/service/sleeptimer/src/sl_sleeptimer_hal_sysrtc.o
                0x20001220                . = ALIGN (0x4)
 *fill*         0x2000121f        0x1 
                [!provide]                PROVIDE (__ram_func_section_start = .)
 *(.ram)
                [!provide]                PROVIDE (__ram_func_section_end = .)
                0x20001220                . = ALIGN (0x4)
                0x20001220                PROVIDE (__preinit_array_start = .)
 *(.preinit_array)
                0x20001220                PROVIDE (__preinit_array_end = .)
                0x20001220                . = ALIGN (0x4)
                0x20001220                PROVIDE (__init_array_start = .)
 *(SORT_BY_NAME(.init_array.*))
 *(.init_array)
 .init_array    0x20001220        0x4 c:/siliconlabs/simplicitystudio/v5/developer/toolchains/gnu_arm/10.3_2021.10/bin/../lib/gcc/arm-none-eabi/10.3.1/thumb/v8-m.main+fp/hard/crtbegin.o
                0x20001224                PROVIDE (__init_array_end = .)
                0x20001224                . = ALIGN (0x4)
                [!provide]                PROVIDE (__fini_array_start = .)
 *(SORT_BY_NAME(.fini_array.*))
 *(.fini_array)
 .fini_array    0x20001224        0x4 c:/siliconlabs/simplicitystudio/v5/developer/toolchains/gnu_arm/10.3_2021.10/bin/../lib/gcc/arm-none-eabi/10.3.1/thumb/v8-m.main+fp/hard/crtbegin.o
                [!provide]                PROVIDE (__fini_array_end = .)
                0x20001228                . = ALIGN (0x4)
                0x20001228                __data_end__ = .

.igot.plt       0x20001228        0x0 load address 0x0800b138
 .igot.plt      0x20001228        0x0 c:/siliconlabs/simplicitystudio/v5/developer/toolchains/gnu_arm/10.3_2021.10/bin/../lib/gcc/arm-none-eabi/10.3.1/thumb/v8-m.main+fp/hard/crtbegin.o

.bss            0x20001228      0x458 load address 0x0800b138
                0x20001228                . = ALIGN (0x4)
                0x20001228                __bss_start__ = .
 *(SORT_BY_ALIGNMENT(.bss*))
 .bss.scanResult
                0x20001228       0x10 ./ADC_lib.o
 .bss           0x20001238       0x1c c:/siliconlabs/simplicitystudio/v5/developer/toolchains/gnu_arm/10.3_2021.10/bin/../lib/gcc/arm-none-eabi/10.3.1/thumb/v8-m.main+fp/hard/crtbegin.o
 .bss.bat       0x20001254        0x4 ./app.o
                0x20001254                bat
 .bss.bme       0x20001258        0xc ./app.o
                0x20001258                bme
 .bss.timer     0x20001264       0x20 ./app.o
                0x20001264                timer
 .bss.uv        0x20001284        0x4 ./app.o
                0x20001284                uv
 .bss.bh1750_i2cspm_instance
                0x20001288        0x4 ./bh1750.o
 .bss.context_mikroe
                0x2000128c       0x64 ./autogen/sl_iostream_init_eusart_instances.o
 .bss.sl_iostream_mikroe
                0x200012f0       0x18 ./autogen/sl_iostream_init_eusart_instances.o
 .bss.context_vcom
                0x20001308       0x4c ./autogen/sl_iostream_init_usart_instances.o
 .bss.sl_iostream_vcom
                0x20001354       0x18 ./autogen/sl_iostream_init_usart_instances.o
 .bss.app_log_iostream
                0x2000136c        0x4 ./gecko_sdk_4.2.3/app/common/util/app_log/app_log.o
                0x2000136c                app_log_iostream
 .bss.p_bmp280  0x20001370        0x4 ./gecko_sdk_4.2.3/hardware/driver/bmp280/bosch/BMP280_driver/bmp280.o
 .bss.bmp280    0x20001374       0x3c ./gecko_sdk_4.2.3/hardware/driver/bmp280/src/sl_bmp280.o
 .bss.bmp280_i2cspm_instance
                0x200013b0        0x4 ./gecko_sdk_4.2.3/hardware/driver/bmp280/src/sl_bmp280.o
 .bss.chTable   0x200013b4       0x80 ./gecko_sdk_4.2.3/platform/emdrv/dmadrv/src/dmadrv.o
 .bss.dmaXfer   0x20001434      0x100 ./gecko_sdk_4.2.3/platform/emdrv/dmadrv/src/dmadrv.o
 .bss.i2cTransfer
                0x20001534       0x18 ./gecko_sdk_4.2.3/platform/emlib/src/em_i2c.o
 .bss.sli_iostream_default
                0x2000154c        0x4 ./gecko_sdk_4.2.3/platform/service/iostream/src/sl_iostream.o
 .bss.last_delta_update_count
                0x20001550        0x4 ./gecko_sdk_4.2.3/platform/service/sleeptimer/src/sl_sleeptimer.o
 .bss.max_millisecond_conversion
                0x20001554        0x4 ./gecko_sdk_4.2.3/platform/service/sleeptimer/src/sl_sleeptimer.o
 .bss.timer_frequency
                0x20001558        0x4 ./gecko_sdk_4.2.3/platform/service/sleeptimer/src/sl_sleeptimer.o
 .bss.timer_head
                0x2000155c        0x4 ./gecko_sdk_4.2.3/platform/service/sleeptimer/src/sl_sleeptimer.o
 .bss.__malloc_free_list
                0x20001560        0x4 c:/siliconlabs/simplicitystudio/v5/developer/toolchains/gnu_arm/10.3_2021.10/bin/../lib/gcc/arm-none-eabi/10.3.1/../../../../arm-none-eabi/lib/thumb/v8-m.main+fp/hard\libc_nano.a(lib_a-nano-mallocr.o)
                0x20001560                __malloc_free_list
 .bss.__malloc_sbrk_start
                0x20001564        0x4 c:/siliconlabs/simplicitystudio/v5/developer/toolchains/gnu_arm/10.3_2021.10/bin/../lib/gcc/arm-none-eabi/10.3.1/../../../../arm-none-eabi/lib/thumb/v8-m.main+fp/hard\libc_nano.a(lib_a-nano-mallocr.o)
                0x20001564                __malloc_sbrk_start
 .bss.errno     0x20001568        0x4 c:/siliconlabs/simplicitystudio/v5/developer/toolchains/gnu_arm/10.3_2021.10/bin/../lib/gcc/arm-none-eabi/10.3.1/../../../../arm-none-eabi/lib/thumb/v8-m.main+fp/hard\libc_nano.a(lib_a-reent.o)
                0x20001568                errno
 .bss.dev       0x2000156c        0x2 ./app.o
                0x2000156c                dev
 .bss.pm        0x2000156e        0x8 ./app.o
                0x2000156e                pm
 .bss.overflow_counter
                0x20001576        0x2 ./gecko_sdk_4.2.3/platform/service/sleeptimer/src/sl_sleeptimer.o
 .bss.cfg       0x20001578        0x4 ./app.o
                0x20001578                cfg
 .bss.toggle_timeout
                0x2000157c        0x1 ./app.o
                0x2000157c                toggle_timeout
 .bss.data      0x2000157d       0x32 ./lora_uart.o
                0x2000157d                data
 .bss.buffer    0x200015af       0x80 ./pms7003.o
                0x200015af                buffer
 .bss.rx_buffer_mikroe
                0x2000162f       0x20 ./autogen/sl_iostream_init_eusart_instances.o
 .bss.rx_buffer_vcom
                0x2000164f       0x20 ./autogen/sl_iostream_init_usart_instances.o
 .bss.level_mask_enabled
                0x2000166f        0x1 ./gecko_sdk_4.2.3/app/common/util/app_log/app_log.o
 .bss.bmp280_device_id
                0x20001670        0x1 ./gecko_sdk_4.2.3/hardware/driver/bmp280/src/sl_bmp280.o
 .bss.bmp280_power_mode
                0x20001671        0x1 ./gecko_sdk_4.2.3/hardware/driver/bmp280/src/sl_bmp280.o
 .bss.initialized
                0x20001672        0x1 ./gecko_sdk_4.2.3/platform/emdrv/dmadrv/src/dmadrv.o
 .bss.vScaleEM01Config
                0x20001673        0x1 ./gecko_sdk_4.2.3/platform/emlib/src/em_emu.o
 .bss.dali_rx_nb_packets
                0x20001674        0x2 ./gecko_sdk_4.2.3/platform/emlib/src/em_eusart.o
 .bss.dali_tx_nb_packets
                0x20001676        0x2 ./gecko_sdk_4.2.3/platform/emlib/src/em_eusart.o
 .bss.is_sleeptimer_initialized
                0x20001678        0x1 ./gecko_sdk_4.2.3/platform/service/sleeptimer/src/sl_sleeptimer.o
 .bss.next_timer_to_expire_is_power_manager
                0x20001679        0x1 ./gecko_sdk_4.2.3/platform/service/sleeptimer/src/sl_sleeptimer.o
 .bss.sleep_on_isr_exit
                0x2000167a        0x1 ./gecko_sdk_4.2.3/platform/service/sleeptimer/src/sl_sleeptimer.o
 .bss.__lock___malloc_recursive_mutex
                0x2000167b        0x1 c:/siliconlabs/simplicitystudio/v5/developer/toolchains/gnu_arm/10.3_2021.10/bin/../lib/gcc/arm-none-eabi/10.3.1/../../../../arm-none-eabi/lib/thumb/v8-m.main+fp/hard\libc_nano.a(lib_a-lock.o)
                0x2000167b                __lock___malloc_recursive_mutex
 .bss.__lock___sfp_recursive_mutex
                0x2000167c        0x1 c:/siliconlabs/simplicitystudio/v5/developer/toolchains/gnu_arm/10.3_2021.10/bin/../lib/gcc/arm-none-eabi/10.3.1/../../../../arm-none-eabi/lib/thumb/v8-m.main+fp/hard\libc_nano.a(lib_a-lock.o)
                0x2000167c                __lock___sfp_recursive_mutex
 .bss.__lock___sinit_recursive_mutex
                0x2000167d        0x1 c:/siliconlabs/simplicitystudio/v5/developer/toolchains/gnu_arm/10.3_2021.10/bin/../lib/gcc/arm-none-eabi/10.3.1/../../../../arm-none-eabi/lib/thumb/v8-m.main+fp/hard\libc_nano.a(lib_a-lock.o)
                0x2000167d                __lock___sinit_recursive_mutex
 *(COMMON)
                0x20001680                . = ALIGN (0x4)
 *fill*         0x2000167e        0x2 
                0x20001680                __bss_end__ = .

.heap           0x20001680    0x3e980
                0x20001680                __HeapBase = .
                0x20001680                __end__ = .
                0x20001680                end = __end__
                0x20001680                _end = __end__
 *(.heap*)
 .heap          0x20001680      0x800 ./gecko_sdk_4.2.3/platform/common/toolchain/src/sl_memory.o
                0x20040000                . = (ORIGIN (RAM) + LENGTH (RAM))
 *fill*         0x20001e80    0x3e180 
                0x20040000                __HeapLimit = .
                0x0003e980                __heap_size = (__HeapLimit - __HeapBase)
                0x20040000                __ram_end__ = 0x20040000
                0x0817e000                __main_flash_end__ = 0x817e000

.internal_storage
                0x0800af10        0x0
 *(.internal_storage*)

.nvm            0x0800af10        0x0
 *(.simee*)
                0x0817e000                linker_nvm_end = __main_flash_end__
                0x0817e000                linker_nvm_begin = (linker_nvm_end - SIZEOF (.nvm))
                0x00000000                linker_nvm_size = SIZEOF (.nvm)
                0x0817e000                linker_storage_end = linker_nvm_begin
                0x0817e000                __nvm3Base = linker_nvm_begin
                0x0817e000                linker_storage_begin = (linker_storage_end - SIZEOF (.internal_storage))
                0x00000000                linker_storage_size = SIZEOF (.internal_storage)
                0x00000001                ASSERT ((linker_storage_begin >= (__etext + SIZEOF (.data))), FLASH memory overflowed !)
                0x0817e000                app_flash_end = 0x817e000
                0x00000001                ASSERT (((linker_nvm_begin + SIZEOF (.nvm)) <= app_flash_end), NVM3 is excessing the flash size !)
OUTPUT(i2c_scan.axf elf32-littlearm)
LOAD linker stubs

.ARM.attributes
                0x00000000       0x36
 .ARM.attributes
                0x00000000       0x22 c:/siliconlabs/simplicitystudio/v5/developer/toolchains/gnu_arm/10.3_2021.10/bin/../lib/gcc/arm-none-eabi/10.3.1/thumb/v8-m.main+fp/hard/crti.o
 .ARM.attributes
                0x00000022       0x38 c:/siliconlabs/simplicitystudio/v5/developer/toolchains/gnu_arm/10.3_2021.10/bin/../lib/gcc/arm-none-eabi/10.3.1/thumb/v8-m.main+fp/hard/crtbegin.o
 .ARM.attributes
                0x0000005a       0x20 c:/siliconlabs/simplicitystudio/v5/developer/toolchains/gnu_arm/10.3_2021.10/bin/../lib/gcc/arm-none-eabi/10.3.1/../../../../arm-none-eabi/lib/thumb/v8-m.main+fp/hard/crt0.o
 .ARM.attributes
                0x0000007a       0x3a ./ADC_lib.o
 .ARM.attributes
                0x000000b4       0x3a ./app.o
 .ARM.attributes
                0x000000ee       0x3a ./bh1750.o
 .ARM.attributes
                0x00000128       0x3a ./i2c_scan.o
 .ARM.attributes
                0x00000162       0x3a ./lora_uart.o
 .ARM.attributes
                0x0000019c       0x3a ./main.o
 .ARM.attributes
                0x000001d6       0x3a ./pms7003.o
 .ARM.attributes
                0x00000210       0x3a ./autogen/sl_board_default_init.o
 .ARM.attributes
                0x0000024a       0x3a ./autogen/sl_device_init_clocks.o
 .ARM.attributes
                0x00000284       0x3a ./autogen/sl_event_handler.o
 .ARM.attributes
                0x000002be       0x3a ./autogen/sl_i2cspm_init.o
 .ARM.attributes
                0x000002f8       0x3a ./autogen/sl_iostream_init_eusart_instances.o
 .ARM.attributes
                0x00000332       0x3a ./autogen/sl_iostream_init_usart_instances.o
 .ARM.attributes
                0x0000036c       0x3a ./gecko_sdk_4.2.3/app/common/util/app_log/app_log.o
 .ARM.attributes
                0x000003a6       0x3a ./gecko_sdk_4.2.3/hardware/board/src/sl_board_control_gpio.o
 .ARM.attributes
                0x000003e0       0x3a ./gecko_sdk_4.2.3/hardware/board/src/sl_board_init.o
 .ARM.attributes
                0x0000041a       0x3a ./gecko_sdk_4.2.3/hardware/driver/bmp280/bosch/BMP280_driver/bmp280.o
 .ARM.attributes
                0x00000454       0x3a ./gecko_sdk_4.2.3/hardware/driver/bmp280/src/sl_bmp280.o
 .ARM.attributes
                0x0000048e       0x3a ./gecko_sdk_4.2.3/platform/Device/SiliconLabs/EFR32MG24/Source/startup_efr32mg24.o
 .ARM.attributes
                0x000004c8       0x3a ./gecko_sdk_4.2.3/platform/Device/SiliconLabs/EFR32MG24/Source/system_efr32mg24.o
 .ARM.attributes
                0x00000502       0x3a ./gecko_sdk_4.2.3/platform/common/src/sl_assert.o
 .ARM.attributes
                0x0000053c       0x3a ./gecko_sdk_4.2.3/platform/common/toolchain/src/sl_memory.o
 .ARM.attributes
                0x00000576       0x3a ./gecko_sdk_4.2.3/platform/driver/i2cspm/src/sl_i2cspm.o
 .ARM.attributes
                0x000005b0       0x3a ./gecko_sdk_4.2.3/platform/emdrv/dmadrv/src/dmadrv.o
 .ARM.attributes
                0x000005ea       0x3a ./gecko_sdk_4.2.3/platform/emlib/src/em_cmu.o
 .ARM.attributes
                0x00000624       0x3a ./gecko_sdk_4.2.3/platform/emlib/src/em_core.o
 .ARM.attributes
                0x0000065e       0x3a ./gecko_sdk_4.2.3/platform/emlib/src/em_emu.o
 .ARM.attributes
                0x00000698       0x3a ./gecko_sdk_4.2.3/platform/emlib/src/em_eusart.o
 .ARM.attributes
                0x000006d2       0x3a ./gecko_sdk_4.2.3/platform/emlib/src/em_gpio.o
 .ARM.attributes
                0x0000070c       0x3a ./gecko_sdk_4.2.3/platform/emlib/src/em_i2c.o
 .ARM.attributes
                0x00000746       0x3a ./gecko_sdk_4.2.3/platform/emlib/src/em_iadc.o
 .ARM.attributes
                0x00000780       0x3a ./gecko_sdk_4.2.3/platform/emlib/src/em_ldma.o
 .ARM.attributes
                0x000007ba       0x3a ./gecko_sdk_4.2.3/platform/emlib/src/em_system.o
 .ARM.attributes
                0x000007f4       0x3a ./gecko_sdk_4.2.3/platform/emlib/src/em_usart.o
 .ARM.attributes
                0x0000082e       0x3a ./gecko_sdk_4.2.3/platform/peripheral/src/peripheral_sysrtc.o
 .ARM.attributes
                0x00000868       0x3a ./gecko_sdk_4.2.3/platform/service/device_init/src/sl_device_init_dcdc_s2.o
 .ARM.attributes
                0x000008a2       0x3a ./gecko_sdk_4.2.3/platform/service/device_init/src/sl_device_init_emu_s2.o
 .ARM.attributes
                0x000008dc       0x3a ./gecko_sdk_4.2.3/platform/service/device_init/src/sl_device_init_hfxo_s2.o
 .ARM.attributes
                0x00000916       0x3a ./gecko_sdk_4.2.3/platform/service/device_init/src/sl_device_init_lfxo_s2.o
 .ARM.attributes
                0x00000950       0x3a ./gecko_sdk_4.2.3/platform/service/device_init/src/sl_device_init_nvic.o
 .ARM.attributes
                0x0000098a       0x3a ./gecko_sdk_4.2.3/platform/service/iostream/src/sl_iostream.o
 .ARM.attributes
                0x000009c4       0x3a ./gecko_sdk_4.2.3/platform/service/iostream/src/sl_iostream_eusart.o
 .ARM.attributes
                0x000009fe       0x3a ./gecko_sdk_4.2.3/platform/service/iostream/src/sl_iostream_retarget_stdio.o
 .ARM.attributes
                0x00000a38       0x3a ./gecko_sdk_4.2.3/platform/service/iostream/src/sl_iostream_stdlib_config.o
 .ARM.attributes
                0x00000a72       0x3a ./gecko_sdk_4.2.3/platform/service/iostream/src/sl_iostream_uart.o
 .ARM.attributes
                0x00000aac       0x3a ./gecko_sdk_4.2.3/platform/service/iostream/src/sl_iostream_usart.o
 .ARM.attributes
                0x00000ae6       0x3a ./gecko_sdk_4.2.3/platform/service/sleeptimer/src/sl_sleeptimer.o
 .ARM.attributes
                0x00000b20       0x3a ./gecko_sdk_4.2.3/platform/service/sleeptimer/src/sl_sleeptimer_hal_sysrtc.o
 .ARM.attributes
                0x00000b5a       0x3a ./gecko_sdk_4.2.3/platform/service/system/src/sl_system_init.o
 .ARM.attributes
                0x00000b94       0x3a ./gecko_sdk_4.2.3/platform/service/system/src/sl_system_process_action.o
 .ARM.attributes
                0x00000bce       0x3a ./gecko_sdk_4.2.3/platform/service/udelay/src/sl_udelay.o
 .ARM.attributes
                0x00000c08       0x26 ./gecko_sdk_4.2.3/platform/service/udelay/src/sl_udelay_armv6m_gcc.o
 .ARM.attributes
                0x00000c2e       0x22 c:/siliconlabs/simplicitystudio/v5/developer/toolchains/gnu_arm/10.3_2021.10/bin/../lib/gcc/arm-none-eabi/10.3.1/thumb/v8-m.main+fp/hard\libgcc.a(_arm_addsubdf3.o)
 .ARM.attributes
                0x00000c50       0x22 c:/siliconlabs/simplicitystudio/v5/developer/toolchains/gnu_arm/10.3_2021.10/bin/../lib/gcc/arm-none-eabi/10.3.1/thumb/v8-m.main+fp/hard\libgcc.a(_arm_muldivdf3.o)
 .ARM.attributes
                0x00000c72       0x22 c:/siliconlabs/simplicitystudio/v5/developer/toolchains/gnu_arm/10.3_2021.10/bin/../lib/gcc/arm-none-eabi/10.3.1/thumb/v8-m.main+fp/hard\libgcc.a(_arm_cmpdf2.o)
 .ARM.attributes
                0x00000c94       0x22 c:/siliconlabs/simplicitystudio/v5/developer/toolchains/gnu_arm/10.3_2021.10/bin/../lib/gcc/arm-none-eabi/10.3.1/thumb/v8-m.main+fp/hard\libgcc.a(_arm_fixdfsi.o)
 .ARM.attributes
                0x00000cb6       0x22 c:/siliconlabs/simplicitystudio/v5/developer/toolchains/gnu_arm/10.3_2021.10/bin/../lib/gcc/arm-none-eabi/10.3.1/thumb/v8-m.main+fp/hard\libgcc.a(_arm_truncdfsf2.o)
 .ARM.attributes
                0x00000cd8       0x22 c:/siliconlabs/simplicitystudio/v5/developer/toolchains/gnu_arm/10.3_2021.10/bin/../lib/gcc/arm-none-eabi/10.3.1/thumb/v8-m.main+fp/hard\libgcc.a(_aeabi_ldivmod.o)
 .ARM.attributes
                0x00000cfa       0x22 c:/siliconlabs/simplicitystudio/v5/developer/toolchains/gnu_arm/10.3_2021.10/bin/../lib/gcc/arm-none-eabi/10.3.1/thumb/v8-m.main+fp/hard\libgcc.a(_aeabi_uldivmod.o)
 .ARM.attributes
                0x00000d1c       0x38 c:/siliconlabs/simplicitystudio/v5/developer/toolchains/gnu_arm/10.3_2021.10/bin/../lib/gcc/arm-none-eabi/10.3.1/thumb/v8-m.main+fp/hard\libgcc.a(_udivmoddi4.o)
 .ARM.attributes
                0x00000d54       0x22 c:/siliconlabs/simplicitystudio/v5/developer/toolchains/gnu_arm/10.3_2021.10/bin/../lib/gcc/arm-none-eabi/10.3.1/thumb/v8-m.main+fp/hard\libgcc.a(_dvmd_tls.o)
 .ARM.attributes
                0x00000d76       0x38 c:/siliconlabs/simplicitystudio/v5/developer/toolchains/gnu_arm/10.3_2021.10/bin/../lib/gcc/arm-none-eabi/10.3.1/../../../../arm-none-eabi/lib/thumb/v8-m.main+fp/hard\libc_nano.a(lib_a-ctype_.o)
 .ARM.attributes
                0x00000dae       0x38 c:/siliconlabs/simplicitystudio/v5/developer/toolchains/gnu_arm/10.3_2021.10/bin/../lib/gcc/arm-none-eabi/10.3.1/../../../../arm-none-eabi/lib/thumb/v8-m.main+fp/hard\libc_nano.a(lib_a-exit.o)
 .ARM.attributes
                0x00000de6       0x38 c:/siliconlabs/simplicitystudio/v5/developer/toolchains/gnu_arm/10.3_2021.10/bin/../lib/gcc/arm-none-eabi/10.3.1/../../../../arm-none-eabi/lib/thumb/v8-m.main+fp/hard\libc_nano.a(lib_a-impure.o)
 .ARM.attributes
                0x00000e1e       0x38 c:/siliconlabs/simplicitystudio/v5/developer/toolchains/gnu_arm/10.3_2021.10/bin/../lib/gcc/arm-none-eabi/10.3.1/../../../../arm-none-eabi/lib/thumb/v8-m.main+fp/hard\libc_nano.a(lib_a-init.o)
 .ARM.attributes
                0x00000e56       0x38 c:/siliconlabs/simplicitystudio/v5/developer/toolchains/gnu_arm/10.3_2021.10/bin/../lib/gcc/arm-none-eabi/10.3.1/../../../../arm-none-eabi/lib/thumb/v8-m.main+fp/hard\libc_nano.a(lib_a-memcpy-stub.o)
 .ARM.attributes
                0x00000e8e       0x38 c:/siliconlabs/simplicitystudio/v5/developer/toolchains/gnu_arm/10.3_2021.10/bin/../lib/gcc/arm-none-eabi/10.3.1/../../../../arm-none-eabi/lib/thumb/v8-m.main+fp/hard\libc_nano.a(lib_a-memset.o)
 .ARM.attributes
                0x00000ec6       0x38 c:/siliconlabs/simplicitystudio/v5/developer/toolchains/gnu_arm/10.3_2021.10/bin/../lib/gcc/arm-none-eabi/10.3.1/../../../../arm-none-eabi/lib/thumb/v8-m.main+fp/hard\libc_nano.a(lib_a-nano-vfprintf_float.o)
 .ARM.attributes
                0x00000efe       0x38 c:/siliconlabs/simplicitystudio/v5/developer/toolchains/gnu_arm/10.3_2021.10/bin/../lib/gcc/arm-none-eabi/10.3.1/../../../../arm-none-eabi/lib/thumb/v8-m.main+fp/hard\libc_nano.a(lib_a-nano-vfprintf_i.o)
 .ARM.attributes
                0x00000f36       0x38 c:/siliconlabs/simplicitystudio/v5/developer/toolchains/gnu_arm/10.3_2021.10/bin/../lib/gcc/arm-none-eabi/10.3.1/../../../../arm-none-eabi/lib/thumb/v8-m.main+fp/hard\libc_nano.a(lib_a-printf.o)
 .ARM.attributes
                0x00000f6e       0x38 c:/siliconlabs/simplicitystudio/v5/developer/toolchains/gnu_arm/10.3_2021.10/bin/../lib/gcc/arm-none-eabi/10.3.1/../../../../arm-none-eabi/lib/thumb/v8-m.main+fp/hard\libc_nano.a(lib_a-setvbuf.o)
 .ARM.attributes
                0x00000fa6       0x38 c:/siliconlabs/simplicitystudio/v5/developer/toolchains/gnu_arm/10.3_2021.10/bin/../lib/gcc/arm-none-eabi/10.3.1/../../../../arm-none-eabi/lib/thumb/v8-m.main+fp/hard\libc_nano.a(lib_a-sprintf.o)
 .ARM.attributes
                0x00000fde       0x17 c:/siliconlabs/simplicitystudio/v5/developer/toolchains/gnu_arm/10.3_2021.10/bin/../lib/gcc/arm-none-eabi/10.3.1/../../../../arm-none-eabi/lib/thumb/v8-m.main+fp/hard\libc_nano.a(lib_a-strlen.o)
 .ARM.attributes
                0x00000ff5       0x38 c:/siliconlabs/simplicitystudio/v5/developer/toolchains/gnu_arm/10.3_2021.10/bin/../lib/gcc/arm-none-eabi/10.3.1/../../../../arm-none-eabi/lib/thumb/v8-m.main+fp/hard\libc_nano.a(lib_a-dtoa.o)
 .ARM.attributes
                0x0000102d       0x38 c:/siliconlabs/simplicitystudio/v5/developer/toolchains/gnu_arm/10.3_2021.10/bin/../lib/gcc/arm-none-eabi/10.3.1/../../../../arm-none-eabi/lib/thumb/v8-m.main+fp/hard\libc_nano.a(lib_a-fflush.o)
 .ARM.attributes
                0x00001065       0x38 c:/siliconlabs/simplicitystudio/v5/developer/toolchains/gnu_arm/10.3_2021.10/bin/../lib/gcc/arm-none-eabi/10.3.1/../../../../arm-none-eabi/lib/thumb/v8-m.main+fp/hard\libc_nano.a(lib_a-findfp.o)
 .ARM.attributes
                0x0000109d       0x38 c:/siliconlabs/simplicitystudio/v5/developer/toolchains/gnu_arm/10.3_2021.10/bin/../lib/gcc/arm-none-eabi/10.3.1/../../../../arm-none-eabi/lib/thumb/v8-m.main+fp/hard\libc_nano.a(lib_a-fwalk.o)
 .ARM.attributes
                0x000010d5       0x38 c:/siliconlabs/simplicitystudio/v5/developer/toolchains/gnu_arm/10.3_2021.10/bin/../lib/gcc/arm-none-eabi/10.3.1/../../../../arm-none-eabi/lib/thumb/v8-m.main+fp/hard\libc_nano.a(lib_a-localeconv.o)
 .ARM.attributes
                0x0000110d       0x38 c:/siliconlabs/simplicitystudio/v5/developer/toolchains/gnu_arm/10.3_2021.10/bin/../lib/gcc/arm-none-eabi/10.3.1/../../../../arm-none-eabi/lib/thumb/v8-m.main+fp/hard\libc_nano.a(lib_a-lock.o)
 .ARM.attributes
                0x00001145       0x38 c:/siliconlabs/simplicitystudio/v5/developer/toolchains/gnu_arm/10.3_2021.10/bin/../lib/gcc/arm-none-eabi/10.3.1/../../../../arm-none-eabi/lib/thumb/v8-m.main+fp/hard\libc_nano.a(lib_a-makebuf.o)
 .ARM.attributes
                0x0000117d       0x38 c:/siliconlabs/simplicitystudio/v5/developer/toolchains/gnu_arm/10.3_2021.10/bin/../lib/gcc/arm-none-eabi/10.3.1/../../../../arm-none-eabi/lib/thumb/v8-m.main+fp/hard\libc_nano.a(lib_a-malloc.o)
 .ARM.attributes
                0x000011b5       0x38 c:/siliconlabs/simplicitystudio/v5/developer/toolchains/gnu_arm/10.3_2021.10/bin/../lib/gcc/arm-none-eabi/10.3.1/../../../../arm-none-eabi/lib/thumb/v8-m.main+fp/hard\libc_nano.a(lib_a-memchr-stub.o)
 .ARM.attributes
                0x000011ed       0x38 c:/siliconlabs/simplicitystudio/v5/developer/toolchains/gnu_arm/10.3_2021.10/bin/../lib/gcc/arm-none-eabi/10.3.1/../../../../arm-none-eabi/lib/thumb/v8-m.main+fp/hard\libc_nano.a(lib_a-mprec.o)
 .ARM.attributes
                0x00001225       0x38 c:/siliconlabs/simplicitystudio/v5/developer/toolchains/gnu_arm/10.3_2021.10/bin/../lib/gcc/arm-none-eabi/10.3.1/../../../../arm-none-eabi/lib/thumb/v8-m.main+fp/hard\libc_nano.a(lib_a-nano-callocr.o)
 .ARM.attributes
                0x0000125d       0x38 c:/siliconlabs/simplicitystudio/v5/developer/toolchains/gnu_arm/10.3_2021.10/bin/../lib/gcc/arm-none-eabi/10.3.1/../../../../arm-none-eabi/lib/thumb/v8-m.main+fp/hard\libc_nano.a(lib_a-nano-freer.o)
 .ARM.attributes
                0x00001295       0x38 c:/siliconlabs/simplicitystudio/v5/developer/toolchains/gnu_arm/10.3_2021.10/bin/../lib/gcc/arm-none-eabi/10.3.1/../../../../arm-none-eabi/lib/thumb/v8-m.main+fp/hard\libc_nano.a(lib_a-nano-mallocr.o)
 .ARM.attributes
                0x000012cd       0x38 c:/siliconlabs/simplicitystudio/v5/developer/toolchains/gnu_arm/10.3_2021.10/bin/../lib/gcc/arm-none-eabi/10.3.1/../../../../arm-none-eabi/lib/thumb/v8-m.main+fp/hard\libc_nano.a(lib_a-nano-svfprintf.o)
 .ARM.attributes
                0x00001305       0x38 c:/siliconlabs/simplicitystudio/v5/developer/toolchains/gnu_arm/10.3_2021.10/bin/../lib/gcc/arm-none-eabi/10.3.1/../../../../arm-none-eabi/lib/thumb/v8-m.main+fp/hard\libc_nano.a(lib_a-nano-vfprintf.o)
 .ARM.attributes
                0x0000133d       0x38 c:/siliconlabs/simplicitystudio/v5/developer/toolchains/gnu_arm/10.3_2021.10/bin/../lib/gcc/arm-none-eabi/10.3.1/../../../../arm-none-eabi/lib/thumb/v8-m.main+fp/hard\libc_nano.a(lib_a-sbrkr.o)
 .ARM.attributes
                0x00001375       0x38 c:/siliconlabs/simplicitystudio/v5/developer/toolchains/gnu_arm/10.3_2021.10/bin/../lib/gcc/arm-none-eabi/10.3.1/../../../../arm-none-eabi/lib/thumb/v8-m.main+fp/hard\libc_nano.a(lib_a-stdio.o)
 .ARM.attributes
                0x000013ad       0x38 c:/siliconlabs/simplicitystudio/v5/developer/toolchains/gnu_arm/10.3_2021.10/bin/../lib/gcc/arm-none-eabi/10.3.1/../../../../arm-none-eabi/lib/thumb/v8-m.main+fp/hard\libc_nano.a(lib_a-wbuf.o)
 .ARM.attributes
                0x000013e5       0x38 c:/siliconlabs/simplicitystudio/v5/developer/toolchains/gnu_arm/10.3_2021.10/bin/../lib/gcc/arm-none-eabi/10.3.1/../../../../arm-none-eabi/lib/thumb/v8-m.main+fp/hard\libc_nano.a(lib_a-writer.o)
 .ARM.attributes
                0x0000141d       0x38 c:/siliconlabs/simplicitystudio/v5/developer/toolchains/gnu_arm/10.3_2021.10/bin/../lib/gcc/arm-none-eabi/10.3.1/../../../../arm-none-eabi/lib/thumb/v8-m.main+fp/hard\libc_nano.a(lib_a-wsetup.o)
 .ARM.attributes
                0x00001455       0x38 c:/siliconlabs/simplicitystudio/v5/developer/toolchains/gnu_arm/10.3_2021.10/bin/../lib/gcc/arm-none-eabi/10.3.1/../../../../arm-none-eabi/lib/thumb/v8-m.main+fp/hard\libc_nano.a(lib_a-assert.o)
 .ARM.attributes
                0x0000148d       0x38 c:/siliconlabs/simplicitystudio/v5/developer/toolchains/gnu_arm/10.3_2021.10/bin/../lib/gcc/arm-none-eabi/10.3.1/../../../../arm-none-eabi/lib/thumb/v8-m.main+fp/hard\libc_nano.a(lib_a-closer.o)
 .ARM.attributes
                0x000014c5       0x38 c:/siliconlabs/simplicitystudio/v5/developer/toolchains/gnu_arm/10.3_2021.10/bin/../lib/gcc/arm-none-eabi/10.3.1/../../../../arm-none-eabi/lib/thumb/v8-m.main+fp/hard\libc_nano.a(lib_a-fprintf.o)
 .ARM.attributes
                0x000014fd       0x38 c:/siliconlabs/simplicitystudio/v5/developer/toolchains/gnu_arm/10.3_2021.10/bin/../lib/gcc/arm-none-eabi/10.3.1/../../../../arm-none-eabi/lib/thumb/v8-m.main+fp/hard\libc_nano.a(lib_a-fstatr.o)
 .ARM.attributes
                0x00001535       0x38 c:/siliconlabs/simplicitystudio/v5/developer/toolchains/gnu_arm/10.3_2021.10/bin/../lib/gcc/arm-none-eabi/10.3.1/../../../../arm-none-eabi/lib/thumb/v8-m.main+fp/hard\libc_nano.a(lib_a-isattyr.o)
 .ARM.attributes
                0x0000156d       0x38 c:/siliconlabs/simplicitystudio/v5/developer/toolchains/gnu_arm/10.3_2021.10/bin/../lib/gcc/arm-none-eabi/10.3.1/../../../../arm-none-eabi/lib/thumb/v8-m.main+fp/hard\libc_nano.a(lib_a-locale.o)
 .ARM.attributes
                0x000015a5       0x38 c:/siliconlabs/simplicitystudio/v5/developer/toolchains/gnu_arm/10.3_2021.10/bin/../lib/gcc/arm-none-eabi/10.3.1/../../../../arm-none-eabi/lib/thumb/v8-m.main+fp/hard\libc_nano.a(lib_a-lseekr.o)
 .ARM.attributes
                0x000015dd       0x38 c:/siliconlabs/simplicitystudio/v5/developer/toolchains/gnu_arm/10.3_2021.10/bin/../lib/gcc/arm-none-eabi/10.3.1/../../../../arm-none-eabi/lib/thumb/v8-m.main+fp/hard\libc_nano.a(lib_a-mbtowc_r.o)
 .ARM.attributes
                0x00001615       0x38 c:/siliconlabs/simplicitystudio/v5/developer/toolchains/gnu_arm/10.3_2021.10/bin/../lib/gcc/arm-none-eabi/10.3.1/../../../../arm-none-eabi/lib/thumb/v8-m.main+fp/hard\libc_nano.a(lib_a-memmove.o)
 .ARM.attributes
                0x0000164d       0x38 c:/siliconlabs/simplicitystudio/v5/developer/toolchains/gnu_arm/10.3_2021.10/bin/../lib/gcc/arm-none-eabi/10.3.1/../../../../arm-none-eabi/lib/thumb/v8-m.main+fp/hard\libc_nano.a(lib_a-mlock.o)
 .ARM.attributes
                0x00001685       0x38 c:/siliconlabs/simplicitystudio/v5/developer/toolchains/gnu_arm/10.3_2021.10/bin/../lib/gcc/arm-none-eabi/10.3.1/../../../../arm-none-eabi/lib/thumb/v8-m.main+fp/hard\libc_nano.a(lib_a-nano-reallocr.o)
 .ARM.attributes
                0x000016bd       0x38 c:/siliconlabs/simplicitystudio/v5/developer/toolchains/gnu_arm/10.3_2021.10/bin/../lib/gcc/arm-none-eabi/10.3.1/../../../../arm-none-eabi/lib/thumb/v8-m.main+fp/hard\libc_nano.a(lib_a-readr.o)
 .ARM.attributes
                0x000016f5       0x38 c:/siliconlabs/simplicitystudio/v5/developer/toolchains/gnu_arm/10.3_2021.10/bin/../lib/gcc/arm-none-eabi/10.3.1/../../../../arm-none-eabi/lib/thumb/v8-m.main+fp/hard\libc_nano.a(lib_a-reent.o)
 .ARM.attributes
                0x0000172d       0x38 c:/siliconlabs/simplicitystudio/v5/developer/toolchains/gnu_arm/10.3_2021.10/bin/../lib/gcc/arm-none-eabi/10.3.1/../../../../arm-none-eabi/lib/thumb/v8-m.main+fp/hard\libc_nano.a(lib_a-wctomb_r.o)
 .ARM.attributes
                0x00001765       0x38 c:/siliconlabs/simplicitystudio/v5/developer/toolchains/gnu_arm/10.3_2021.10/bin/../lib/gcc/arm-none-eabi/10.3.1/../../../../arm-none-eabi/lib/thumb/v8-m.main+fp/hard\libc_nano.a(lib_a-abort.o)
 .ARM.attributes
                0x0000179d       0x38 c:/siliconlabs/simplicitystudio/v5/developer/toolchains/gnu_arm/10.3_2021.10/bin/../lib/gcc/arm-none-eabi/10.3.1/../../../../arm-none-eabi/lib/thumb/v8-m.main+fp/hard\libc_nano.a(lib_a-nano-msizer.o)
 .ARM.attributes
                0x000017d5       0x38 c:/siliconlabs/simplicitystudio/v5/developer/toolchains/gnu_arm/10.3_2021.10/bin/../lib/gcc/arm-none-eabi/10.3.1/../../../../arm-none-eabi/lib/thumb/v8-m.main+fp/hard\libc_nano.a(lib_a-signal.o)
 .ARM.attributes
                0x0000180d       0x38 c:/siliconlabs/simplicitystudio/v5/developer/toolchains/gnu_arm/10.3_2021.10/bin/../lib/gcc/arm-none-eabi/10.3.1/../../../../arm-none-eabi/lib/thumb/v8-m.main+fp/hard\libc_nano.a(lib_a-signalr.o)
 .ARM.attributes
                0x00001845       0x22 c:/siliconlabs/simplicitystudio/v5/developer/toolchains/gnu_arm/10.3_2021.10/bin/../lib/gcc/arm-none-eabi/10.3.1/thumb/v8-m.main+fp/hard\libgcc.a(_arm_unorddf2.o)
 .ARM.attributes
                0x00001867       0x22 c:/siliconlabs/simplicitystudio/v5/developer/toolchains/gnu_arm/10.3_2021.10/bin/../lib/gcc/arm-none-eabi/10.3.1/thumb/v8-m.main+fp/hard/crtn.o

.comment        0x00000000       0x49
 .comment       0x00000000       0x49 ./ADC_lib.o
                                 0x4a (size before relaxing)
 .comment       0x00000049       0x4a ./app.o
 .comment       0x00000049       0x4a ./bh1750.o
 .comment       0x00000049       0x4a ./i2c_scan.o
 .comment       0x00000049       0x4a ./lora_uart.o
 .comment       0x00000049       0x4a ./main.o
 .comment       0x00000049       0x4a ./pms7003.o
 .comment       0x00000049       0x4a ./autogen/sl_board_default_init.o
 .comment       0x00000049       0x4a ./autogen/sl_device_init_clocks.o
 .comment       0x00000049       0x4a ./autogen/sl_event_handler.o
 .comment       0x00000049       0x4a ./autogen/sl_i2cspm_init.o
 .comment       0x00000049       0x4a ./autogen/sl_iostream_init_eusart_instances.o
 .comment       0x00000049       0x4a ./autogen/sl_iostream_init_usart_instances.o
 .comment       0x00000049       0x4a ./gecko_sdk_4.2.3/app/common/util/app_log/app_log.o
 .comment       0x00000049       0x4a ./gecko_sdk_4.2.3/hardware/board/src/sl_board_control_gpio.o
 .comment       0x00000049       0x4a ./gecko_sdk_4.2.3/hardware/board/src/sl_board_init.o
 .comment       0x00000049       0x4a ./gecko_sdk_4.2.3/hardware/driver/bmp280/bosch/BMP280_driver/bmp280.o
 .comment       0x00000049       0x4a ./gecko_sdk_4.2.3/hardware/driver/bmp280/src/sl_bmp280.o
 .comment       0x00000049       0x4a ./gecko_sdk_4.2.3/platform/Device/SiliconLabs/EFR32MG24/Source/startup_efr32mg24.o
 .comment       0x00000049       0x4a ./gecko_sdk_4.2.3/platform/Device/SiliconLabs/EFR32MG24/Source/system_efr32mg24.o
 .comment       0x00000049       0x4a ./gecko_sdk_4.2.3/platform/common/src/sl_assert.o
 .comment       0x00000049       0x4a ./gecko_sdk_4.2.3/platform/common/toolchain/src/sl_memory.o
 .comment       0x00000049       0x4a ./gecko_sdk_4.2.3/platform/driver/i2cspm/src/sl_i2cspm.o
 .comment       0x00000049       0x4a ./gecko_sdk_4.2.3/platform/emdrv/dmadrv/src/dmadrv.o
 .comment       0x00000049       0x4a ./gecko_sdk_4.2.3/platform/emlib/src/em_cmu.o
 .comment       0x00000049       0x4a ./gecko_sdk_4.2.3/platform/emlib/src/em_core.o
 .comment       0x00000049       0x4a ./gecko_sdk_4.2.3/platform/emlib/src/em_emu.o
 .comment       0x00000049       0x4a ./gecko_sdk_4.2.3/platform/emlib/src/em_eusart.o
 .comment       0x00000049       0x4a ./gecko_sdk_4.2.3/platform/emlib/src/em_gpio.o
 .comment       0x00000049       0x4a ./gecko_sdk_4.2.3/platform/emlib/src/em_i2c.o
 .comment       0x00000049       0x4a ./gecko_sdk_4.2.3/platform/emlib/src/em_iadc.o
 .comment       0x00000049       0x4a ./gecko_sdk_4.2.3/platform/emlib/src/em_ldma.o
 .comment       0x00000049       0x4a ./gecko_sdk_4.2.3/platform/emlib/src/em_system.o
 .comment       0x00000049       0x4a ./gecko_sdk_4.2.3/platform/emlib/src/em_usart.o
 .comment       0x00000049       0x4a ./gecko_sdk_4.2.3/platform/peripheral/src/peripheral_sysrtc.o
 .comment       0x00000049       0x4a ./gecko_sdk_4.2.3/platform/service/device_init/src/sl_device_init_dcdc_s2.o
 .comment       0x00000049       0x4a ./gecko_sdk_4.2.3/platform/service/device_init/src/sl_device_init_emu_s2.o
 .comment       0x00000049       0x4a ./gecko_sdk_4.2.3/platform/service/device_init/src/sl_device_init_hfxo_s2.o
 .comment       0x00000049       0x4a ./gecko_sdk_4.2.3/platform/service/device_init/src/sl_device_init_lfxo_s2.o
 .comment       0x00000049       0x4a ./gecko_sdk_4.2.3/platform/service/device_init/src/sl_device_init_nvic.o
 .comment       0x00000049       0x4a ./gecko_sdk_4.2.3/platform/service/iostream/src/sl_iostream.o
 .comment       0x00000049       0x4a ./gecko_sdk_4.2.3/platform/service/iostream/src/sl_iostream_eusart.o
 .comment       0x00000049       0x4a ./gecko_sdk_4.2.3/platform/service/iostream/src/sl_iostream_retarget_stdio.o
 .comment       0x00000049       0x4a ./gecko_sdk_4.2.3/platform/service/iostream/src/sl_iostream_stdlib_config.o
 .comment       0x00000049       0x4a ./gecko_sdk_4.2.3/platform/service/iostream/src/sl_iostream_uart.o
 .comment       0x00000049       0x4a ./gecko_sdk_4.2.3/platform/service/iostream/src/sl_iostream_usart.o
 .comment       0x00000049       0x4a ./gecko_sdk_4.2.3/platform/service/sleeptimer/src/sl_sleeptimer.o
 .comment       0x00000049       0x4a ./gecko_sdk_4.2.3/platform/service/sleeptimer/src/sl_sleeptimer_hal_sysrtc.o
 .comment       0x00000049       0x4a ./gecko_sdk_4.2.3/platform/service/system/src/sl_system_init.o
 .comment       0x00000049       0x4a ./gecko_sdk_4.2.3/platform/service/system/src/sl_system_process_action.o
 .comment       0x00000049       0x4a ./gecko_sdk_4.2.3/platform/service/udelay/src/sl_udelay.o

.debug_info     0x00000000    0x4913f
 .debug_info    0x00000000     0x3581 ./ADC_lib.o
 .debug_info    0x00003581      0xacd ./app.o
 .debug_info    0x0000404e      0xb0a ./bh1750.o
 .debug_info    0x00004b58      0x74b ./i2c_scan.o
 .debug_info    0x000052a3      0x43b ./lora_uart.o
 .debug_info    0x000056de       0xad ./main.o
 .debug_info    0x0000578b      0x51e ./pms7003.o
 .debug_info    0x00005ca9       0x86 ./autogen/sl_board_default_init.o
 .debug_info    0x00005d2f     0x1422 ./autogen/sl_device_init_clocks.o
 .debug_info    0x00007151      0x2bd ./autogen/sl_event_handler.o
 .debug_info    0x0000740e      0x8c3 ./autogen/sl_i2cspm_init.o
 .debug_info    0x00007cd1     0x1868 ./autogen/sl_iostream_init_eusart_instances.o
 .debug_info    0x00009539     0x17a7 ./autogen/sl_iostream_init_usart_instances.o
 .debug_info    0x0000ace0      0x5d8 ./gecko_sdk_4.2.3/app/common/util/app_log/app_log.o
 .debug_info    0x0000b2b8      0x3a1 ./gecko_sdk_4.2.3/hardware/board/src/sl_board_control_gpio.o
 .debug_info    0x0000b659      0x2bd ./gecko_sdk_4.2.3/hardware/board/src/sl_board_init.o
 .debug_info    0x0000b916     0x170a ./gecko_sdk_4.2.3/hardware/driver/bmp280/bosch/BMP280_driver/bmp280.o
 .debug_info    0x0000d020     0x1005 ./gecko_sdk_4.2.3/hardware/driver/bmp280/src/sl_bmp280.o
 .debug_info    0x0000e025      0x327 ./gecko_sdk_4.2.3/platform/Device/SiliconLabs/EFR32MG24/Source/startup_efr32mg24.o
 .debug_info    0x0000e34c     0x241b ./gecko_sdk_4.2.3/platform/Device/SiliconLabs/EFR32MG24/Source/system_efr32mg24.o
 .debug_info    0x00010767       0x86 ./gecko_sdk_4.2.3/platform/common/src/sl_assert.o
 .debug_info    0x000107ed      0x205 ./gecko_sdk_4.2.3/platform/common/toolchain/src/sl_memory.o
 .debug_info    0x000109f2     0x21c9 ./gecko_sdk_4.2.3/platform/driver/i2cspm/src/sl_i2cspm.o
 .debug_info    0x00012bbb     0x1e60 ./gecko_sdk_4.2.3/platform/emdrv/dmadrv/src/dmadrv.o
 .debug_info    0x00014a1b     0xa6ff ./gecko_sdk_4.2.3/platform/emlib/src/em_cmu.o
 .debug_info    0x0001f11a     0x1400 ./gecko_sdk_4.2.3/platform/emlib/src/em_core.o
 .debug_info    0x0002051a     0x39fd ./gecko_sdk_4.2.3/platform/emlib/src/em_emu.o
 .debug_info    0x00023f17     0x599a ./gecko_sdk_4.2.3/platform/emlib/src/em_eusart.o
 .debug_info    0x000298b1     0x2758 ./gecko_sdk_4.2.3/platform/emlib/src/em_gpio.o
 .debug_info    0x0002c009     0x135f ./gecko_sdk_4.2.3/platform/emlib/src/em_i2c.o
 .debug_info    0x0002d368     0x2ba5 ./gecko_sdk_4.2.3/platform/emlib/src/em_iadc.o
 .debug_info    0x0002ff0d     0x1fa6 ./gecko_sdk_4.2.3/platform/emlib/src/em_ldma.o
 .debug_info    0x00031eb3     0x1ce3 ./gecko_sdk_4.2.3/platform/emlib/src/em_system.o
 .debug_info    0x00033b96     0x4a09 ./gecko_sdk_4.2.3/platform/emlib/src/em_usart.o
 .debug_info    0x0003859f      0xd1b ./gecko_sdk_4.2.3/platform/peripheral/src/peripheral_sysrtc.o
 .debug_info    0x000392ba      0x34b ./gecko_sdk_4.2.3/platform/service/device_init/src/sl_device_init_dcdc_s2.o
 .debug_info    0x00039605      0xb36 ./gecko_sdk_4.2.3/platform/service/device_init/src/sl_device_init_emu_s2.o
 .debug_info    0x0003a13b      0x870 ./gecko_sdk_4.2.3/platform/service/device_init/src/sl_device_init_hfxo_s2.o
 .debug_info    0x0003a9ab      0x271 ./gecko_sdk_4.2.3/platform/service/device_init/src/sl_device_init_lfxo_s2.o
 .debug_info    0x0003ac1c      0x84f ./gecko_sdk_4.2.3/platform/service/device_init/src/sl_device_init_nvic.o
 .debug_info    0x0003b46b      0x5fb ./gecko_sdk_4.2.3/platform/service/iostream/src/sl_iostream.o
 .debug_info    0x0003ba66     0x4501 ./gecko_sdk_4.2.3/platform/service/iostream/src/sl_iostream_eusart.o
 .debug_info    0x0003ff67      0x5b7 ./gecko_sdk_4.2.3/platform/service/iostream/src/sl_iostream_retarget_stdio.o
 .debug_info    0x0004051e      0x895 ./gecko_sdk_4.2.3/platform/service/iostream/src/sl_iostream_stdlib_config.o
 .debug_info    0x00040db3     0x1cec ./gecko_sdk_4.2.3/platform/service/iostream/src/sl_iostream_uart.o
 .debug_info    0x00042a9f     0x357e ./gecko_sdk_4.2.3/platform/service/iostream/src/sl_iostream_usart.o
 .debug_info    0x0004601d     0x1946 ./gecko_sdk_4.2.3/platform/service/sleeptimer/src/sl_sleeptimer.o
 .debug_info    0x00047963     0x14d9 ./gecko_sdk_4.2.3/platform/service/sleeptimer/src/sl_sleeptimer_hal_sysrtc.o
 .debug_info    0x00048e3c       0xba ./gecko_sdk_4.2.3/platform/service/system/src/sl_system_init.o
 .debug_info    0x00048ef6       0xa3 ./gecko_sdk_4.2.3/platform/service/system/src/sl_system_process_action.o
 .debug_info    0x00048f99      0x180 ./gecko_sdk_4.2.3/platform/service/udelay/src/sl_udelay.o
 .debug_info    0x00049119       0x26 ./gecko_sdk_4.2.3/platform/service/udelay/src/sl_udelay_armv6m_gcc.o

.debug_abbrev   0x00000000     0x7480
 .debug_abbrev  0x00000000      0x2e6 ./ADC_lib.o
 .debug_abbrev  0x000002e6      0x1e5 ./app.o
 .debug_abbrev  0x000004cb      0x292 ./bh1750.o
 .debug_abbrev  0x0000075d      0x190 ./i2c_scan.o
 .debug_abbrev  0x000008ed      0x1d8 ./lora_uart.o
 .debug_abbrev  0x00000ac5       0x5e ./main.o
 .debug_abbrev  0x00000b23      0x22d ./pms7003.o
 .debug_abbrev  0x00000d50       0x46 ./autogen/sl_board_default_init.o
 .debug_abbrev  0x00000d96       0xe1 ./autogen/sl_device_init_clocks.o
 .debug_abbrev  0x00000e77       0xd6 ./autogen/sl_event_handler.o
 .debug_abbrev  0x00000f4d      0x16b ./autogen/sl_i2cspm_init.o
 .debug_abbrev  0x000010b8      0x269 ./autogen/sl_iostream_init_eusart_instances.o
 .debug_abbrev  0x00001321      0x26f ./autogen/sl_iostream_init_usart_instances.o
 .debug_abbrev  0x00001590      0x2b2 ./gecko_sdk_4.2.3/app/common/util/app_log/app_log.o
 .debug_abbrev  0x00001842      0x16d ./gecko_sdk_4.2.3/hardware/board/src/sl_board_control_gpio.o
 .debug_abbrev  0x000019af       0xe8 ./gecko_sdk_4.2.3/hardware/board/src/sl_board_init.o
 .debug_abbrev  0x00001a97      0x21c ./gecko_sdk_4.2.3/hardware/driver/bmp280/bosch/BMP280_driver/bmp280.o
 .debug_abbrev  0x00001cb3      0x339 ./gecko_sdk_4.2.3/hardware/driver/bmp280/src/sl_bmp280.o
 .debug_abbrev  0x00001fec      0x1c9 ./gecko_sdk_4.2.3/platform/Device/SiliconLabs/EFR32MG24/Source/startup_efr32mg24.o
 .debug_abbrev  0x000021b5      0x325 ./gecko_sdk_4.2.3/platform/Device/SiliconLabs/EFR32MG24/Source/system_efr32mg24.o
 .debug_abbrev  0x000024da       0x6c ./gecko_sdk_4.2.3/platform/common/src/sl_assert.o
 .debug_abbrev  0x00002546      0x11e ./gecko_sdk_4.2.3/platform/common/toolchain/src/sl_memory.o
 .debug_abbrev  0x00002664      0x27a ./gecko_sdk_4.2.3/platform/driver/i2cspm/src/sl_i2cspm.o
 .debug_abbrev  0x000028de      0x381 ./gecko_sdk_4.2.3/platform/emdrv/dmadrv/src/dmadrv.o
 .debug_abbrev  0x00002c5f      0x56f ./gecko_sdk_4.2.3/platform/emlib/src/em_cmu.o
 .debug_abbrev  0x000031ce      0x318 ./gecko_sdk_4.2.3/platform/emlib/src/em_core.o
 .debug_abbrev  0x000034e6      0x48b ./gecko_sdk_4.2.3/platform/emlib/src/em_emu.o
 .debug_abbrev  0x00003971      0x43d ./gecko_sdk_4.2.3/platform/emlib/src/em_eusart.o
 .debug_abbrev  0x00003dae      0x328 ./gecko_sdk_4.2.3/platform/emlib/src/em_gpio.o
 .debug_abbrev  0x000040d6      0x412 ./gecko_sdk_4.2.3/platform/emlib/src/em_i2c.o
 .debug_abbrev  0x000044e8      0x445 ./gecko_sdk_4.2.3/platform/emlib/src/em_iadc.o
 .debug_abbrev  0x0000492d      0x3d4 ./gecko_sdk_4.2.3/platform/emlib/src/em_ldma.o
 .debug_abbrev  0x00004d01      0x1fe ./gecko_sdk_4.2.3/platform/emlib/src/em_system.o
 .debug_abbrev  0x00004eff      0x33a ./gecko_sdk_4.2.3/platform/emlib/src/em_usart.o
 .debug_abbrev  0x00005239      0x245 ./gecko_sdk_4.2.3/platform/peripheral/src/peripheral_sysrtc.o
 .debug_abbrev  0x0000547e       0xed ./gecko_sdk_4.2.3/platform/service/device_init/src/sl_device_init_dcdc_s2.o
 .debug_abbrev  0x0000556b      0x13a ./gecko_sdk_4.2.3/platform/service/device_init/src/sl_device_init_emu_s2.o
 .debug_abbrev  0x000056a5      0x171 ./gecko_sdk_4.2.3/platform/service/device_init/src/sl_device_init_hfxo_s2.o
 .debug_abbrev  0x00005816       0xef ./gecko_sdk_4.2.3/platform/service/device_init/src/sl_device_init_lfxo_s2.o
 .debug_abbrev  0x00005905      0x144 ./gecko_sdk_4.2.3/platform/service/device_init/src/sl_device_init_nvic.o
 .debug_abbrev  0x00005a49      0x27d ./gecko_sdk_4.2.3/platform/service/iostream/src/sl_iostream.o
 .debug_abbrev  0x00005cc6      0x380 ./gecko_sdk_4.2.3/platform/service/iostream/src/sl_iostream_eusart.o
 .debug_abbrev  0x00006046      0x198 ./gecko_sdk_4.2.3/platform/service/iostream/src/sl_iostream_retarget_stdio.o
 .debug_abbrev  0x000061de      0x187 ./gecko_sdk_4.2.3/platform/service/iostream/src/sl_iostream_stdlib_config.o
 .debug_abbrev  0x00006365      0x437 ./gecko_sdk_4.2.3/platform/service/iostream/src/sl_iostream_uart.o
 .debug_abbrev  0x0000679c      0x372 ./gecko_sdk_4.2.3/platform/service/iostream/src/sl_iostream_usart.o
 .debug_abbrev  0x00006b0e      0x43d ./gecko_sdk_4.2.3/platform/service/sleeptimer/src/sl_sleeptimer.o
 .debug_abbrev  0x00006f4b      0x372 ./gecko_sdk_4.2.3/platform/service/sleeptimer/src/sl_sleeptimer_hal_sysrtc.o
 .debug_abbrev  0x000072bd       0x5f ./gecko_sdk_4.2.3/platform/service/system/src/sl_system_init.o
 .debug_abbrev  0x0000731c       0x5f ./gecko_sdk_4.2.3/platform/service/system/src/sl_system_process_action.o
 .debug_abbrev  0x0000737b       0xf1 ./gecko_sdk_4.2.3/platform/service/udelay/src/sl_udelay.o
 .debug_abbrev  0x0000746c       0x14 ./gecko_sdk_4.2.3/platform/service/udelay/src/sl_udelay_armv6m_gcc.o

.debug_loc      0x00000000    0x145e0
 .debug_loc     0x00000000      0x2bb ./ADC_lib.o
 .debug_loc     0x000002bb       0x58 ./app.o
 .debug_loc     0x00000313      0x338 ./bh1750.o
 .debug_loc     0x0000064b      0x120 ./i2c_scan.o
 .debug_loc     0x0000076b       0xf7 ./lora_uart.o
 .debug_loc     0x00000862       0x20 ./main.o
 .debug_loc     0x00000882      0x2fb ./pms7003.o
 .debug_loc     0x00000b7d       0x20 ./autogen/sl_device_init_clocks.o
 .debug_loc     0x00000b9d       0x84 ./autogen/sl_event_handler.o
 .debug_loc     0x00000c21       0x2c ./autogen/sl_i2cspm_init.o
 .debug_loc     0x00000c4d       0x8a ./autogen/sl_iostream_init_eusart_instances.o
 .debug_loc     0x00000cd7       0xe4 ./autogen/sl_iostream_init_usart_instances.o
 .debug_loc     0x00000dbb      0x29f ./gecko_sdk_4.2.3/app/common/util/app_log/app_log.o
 .debug_loc     0x0000105a      0x20a ./gecko_sdk_4.2.3/hardware/board/src/sl_board_control_gpio.o
 .debug_loc     0x00001264       0x2c ./gecko_sdk_4.2.3/hardware/board/src/sl_board_init.o
 .debug_loc     0x00001290     0x2357 ./gecko_sdk_4.2.3/hardware/driver/bmp280/bosch/BMP280_driver/bmp280.o
 .debug_loc     0x000035e7      0x6ef ./gecko_sdk_4.2.3/hardware/driver/bmp280/src/sl_bmp280.o
 .debug_loc     0x00003cd6       0x8e ./gecko_sdk_4.2.3/platform/Device/SiliconLabs/EFR32MG24/Source/startup_efr32mg24.o
 .debug_loc     0x00003d64      0x1d9 ./gecko_sdk_4.2.3/platform/Device/SiliconLabs/EFR32MG24/Source/system_efr32mg24.o
 .debug_loc     0x00003f3d       0x2a ./gecko_sdk_4.2.3/platform/common/src/sl_assert.o
 .debug_loc     0x00003f67       0x9c ./gecko_sdk_4.2.3/platform/common/toolchain/src/sl_memory.o
 .debug_loc     0x00004003      0x271 ./gecko_sdk_4.2.3/platform/driver/i2cspm/src/sl_i2cspm.o
 .debug_loc     0x00004274     0x119f ./gecko_sdk_4.2.3/platform/emdrv/dmadrv/src/dmadrv.o
 .debug_loc     0x00005413     0x45e6 ./gecko_sdk_4.2.3/platform/emlib/src/em_cmu.o
 .debug_loc     0x000099f9      0x959 ./gecko_sdk_4.2.3/platform/emlib/src/em_core.o
 .debug_loc     0x0000a352      0x8a1 ./gecko_sdk_4.2.3/platform/emlib/src/em_emu.o
 .debug_loc     0x0000abf3     0x1332 ./gecko_sdk_4.2.3/platform/emlib/src/em_eusart.o
 .debug_loc     0x0000bf25      0xaad ./gecko_sdk_4.2.3/platform/emlib/src/em_gpio.o
 .debug_loc     0x0000c9d2      0xf3e ./gecko_sdk_4.2.3/platform/emlib/src/em_i2c.o
 .debug_loc     0x0000d910     0x16bb ./gecko_sdk_4.2.3/platform/emlib/src/em_iadc.o
 .debug_loc     0x0000efcb      0x5eb ./gecko_sdk_4.2.3/platform/emlib/src/em_ldma.o
 .debug_loc     0x0000f5b6      0x138 ./gecko_sdk_4.2.3/platform/emlib/src/em_system.o
 .debug_loc     0x0000f6ee      0xa03 ./gecko_sdk_4.2.3/platform/emlib/src/em_usart.o
 .debug_loc     0x000100f1      0x4f5 ./gecko_sdk_4.2.3/platform/peripheral/src/peripheral_sysrtc.o
 .debug_loc     0x000105e6       0x2c ./gecko_sdk_4.2.3/platform/service/device_init/src/sl_device_init_dcdc_s2.o
 .debug_loc     0x00010612       0x2c ./gecko_sdk_4.2.3/platform/service/device_init/src/sl_device_init_emu_s2.o
 .debug_loc     0x0001063e       0xba ./gecko_sdk_4.2.3/platform/service/device_init/src/sl_device_init_hfxo_s2.o
 .debug_loc     0x000106f8       0x38 ./gecko_sdk_4.2.3/platform/service/device_init/src/sl_device_init_lfxo_s2.o
 .debug_loc     0x00010730       0x6f ./gecko_sdk_4.2.3/platform/service/device_init/src/sl_device_init_nvic.o
 .debug_loc     0x0001079f      0x649 ./gecko_sdk_4.2.3/platform/service/iostream/src/sl_iostream.o
 .debug_loc     0x00010de8      0x5a0 ./gecko_sdk_4.2.3/platform/service/iostream/src/sl_iostream_eusart.o
 .debug_loc     0x00011388      0x217 ./gecko_sdk_4.2.3/platform/service/iostream/src/sl_iostream_retarget_stdio.o
 .debug_loc     0x0001159f      0xd22 ./gecko_sdk_4.2.3/platform/service/iostream/src/sl_iostream_uart.o
 .debug_loc     0x000122c1      0x472 ./gecko_sdk_4.2.3/platform/service/iostream/src/sl_iostream_usart.o
 .debug_loc     0x00012733     0x18f7 ./gecko_sdk_4.2.3/platform/service/sleeptimer/src/sl_sleeptimer.o
 .debug_loc     0x0001402a      0x3c9 ./gecko_sdk_4.2.3/platform/service/sleeptimer/src/sl_sleeptimer_hal_sysrtc.o
 .debug_loc     0x000143f3       0x2c ./gecko_sdk_4.2.3/platform/service/system/src/sl_system_init.o
 .debug_loc     0x0001441f       0x2c ./gecko_sdk_4.2.3/platform/service/system/src/sl_system_process_action.o
 .debug_loc     0x0001444b      0x195 ./gecko_sdk_4.2.3/platform/service/udelay/src/sl_udelay.o

.debug_aranges  0x00000000     0x12c0
 .debug_aranges
                0x00000000       0x48 ./ADC_lib.o
 .debug_aranges
                0x00000048       0x30 ./app.o
 .debug_aranges
                0x00000078       0x50 ./bh1750.o
 .debug_aranges
                0x000000c8       0x28 ./i2c_scan.o
 .debug_aranges
                0x000000f0       0x20 ./lora_uart.o
 .debug_aranges
                0x00000110       0x20 ./main.o
 .debug_aranges
                0x00000130       0x38 ./pms7003.o
 .debug_aranges
                0x00000168       0x20 ./autogen/sl_board_default_init.o
 .debug_aranges
                0x00000188       0x20 ./autogen/sl_device_init_clocks.o
 .debug_aranges
                0x000001a8       0x48 ./autogen/sl_event_handler.o
 .debug_aranges
                0x000001f0       0x20 ./autogen/sl_i2cspm_init.o
 .debug_aranges
                0x00000210       0x30 ./autogen/sl_iostream_init_eusart_instances.o
 .debug_aranges
                0x00000240       0x30 ./autogen/sl_iostream_init_usart_instances.o
 .debug_aranges
                0x00000270       0x88 ./gecko_sdk_4.2.3/app/common/util/app_log/app_log.o
 .debug_aranges
                0x000002f8       0x58 ./gecko_sdk_4.2.3/hardware/board/src/sl_board_control_gpio.o
 .debug_aranges
                0x00000350       0x28 ./gecko_sdk_4.2.3/hardware/board/src/sl_board_init.o
 .debug_aranges
                0x00000378      0x118 ./gecko_sdk_4.2.3/hardware/driver/bmp280/bosch/BMP280_driver/bmp280.o
 .debug_aranges
                0x00000490       0x60 ./gecko_sdk_4.2.3/hardware/driver/bmp280/src/sl_bmp280.o
 .debug_aranges
                0x000004f0       0x28 ./gecko_sdk_4.2.3/platform/Device/SiliconLabs/EFR32MG24/Source/startup_efr32mg24.o
 .debug_aranges
                0x00000518       0x90 ./gecko_sdk_4.2.3/platform/Device/SiliconLabs/EFR32MG24/Source/system_efr32mg24.o
 .debug_aranges
                0x000005a8       0x20 ./gecko_sdk_4.2.3/platform/common/src/sl_assert.o
 .debug_aranges
                0x000005c8       0x30 ./gecko_sdk_4.2.3/platform/common/toolchain/src/sl_memory.o
 .debug_aranges
                0x000005f8       0x28 ./gecko_sdk_4.2.3/platform/driver/i2cspm/src/sl_i2cspm.o
 .debug_aranges
                0x00000620       0xa8 ./gecko_sdk_4.2.3/platform/emdrv/dmadrv/src/dmadrv.o
 .debug_aranges
                0x000006c8      0x1e8 ./gecko_sdk_4.2.3/platform/emlib/src/em_cmu.o
 .debug_aranges
                0x000008b0       0xe8 ./gecko_sdk_4.2.3/platform/emlib/src/em_core.o
 .debug_aranges
                0x00000998       0xf0 ./gecko_sdk_4.2.3/platform/emlib/src/em_emu.o
 .debug_aranges
                0x00000a88       0xc8 ./gecko_sdk_4.2.3/platform/emlib/src/em_eusart.o
 .debug_aranges
                0x00000b50       0x68 ./gecko_sdk_4.2.3/platform/emlib/src/em_gpio.o
 .debug_aranges
                0x00000bb8       0x50 ./gecko_sdk_4.2.3/platform/emlib/src/em_i2c.o
 .debug_aranges
                0x00000c08       0xa0 ./gecko_sdk_4.2.3/platform/emlib/src/em_iadc.o
 .debug_aranges
                0x00000ca8       0x50 ./gecko_sdk_4.2.3/platform/emlib/src/em_ldma.o
 .debug_aranges
                0x00000cf8       0x30 ./gecko_sdk_4.2.3/platform/emlib/src/em_system.o
 .debug_aranges
                0x00000d28       0xb8 ./gecko_sdk_4.2.3/platform/emlib/src/em_usart.o
 .debug_aranges
                0x00000de0       0x90 ./gecko_sdk_4.2.3/platform/peripheral/src/peripheral_sysrtc.o
 .debug_aranges
                0x00000e70       0x20 ./gecko_sdk_4.2.3/platform/service/device_init/src/sl_device_init_dcdc_s2.o
 .debug_aranges
                0x00000e90       0x20 ./gecko_sdk_4.2.3/platform/service/device_init/src/sl_device_init_emu_s2.o
 .debug_aranges
                0x00000eb0       0x20 ./gecko_sdk_4.2.3/platform/service/device_init/src/sl_device_init_hfxo_s2.o
 .debug_aranges
                0x00000ed0       0x20 ./gecko_sdk_4.2.3/platform/service/device_init/src/sl_device_init_lfxo_s2.o
 .debug_aranges
                0x00000ef0       0x20 ./gecko_sdk_4.2.3/platform/service/device_init/src/sl_device_init_nvic.o
 .debug_aranges
                0x00000f10       0x58 ./gecko_sdk_4.2.3/platform/service/iostream/src/sl_iostream.o
 .debug_aranges
                0x00000f68       0x40 ./gecko_sdk_4.2.3/platform/service/iostream/src/sl_iostream_eusart.o
 .debug_aranges
                0x00000fa8       0x60 ./gecko_sdk_4.2.3/platform/service/iostream/src/sl_iostream_retarget_stdio.o
 .debug_aranges
                0x00001008       0x20 ./gecko_sdk_4.2.3/platform/service/iostream/src/sl_iostream_stdlib_config.o
 .debug_aranges
                0x00001028       0x58 ./gecko_sdk_4.2.3/platform/service/iostream/src/sl_iostream_uart.o
 .debug_aranges
                0x00001080       0x40 ./gecko_sdk_4.2.3/platform/service/iostream/src/sl_iostream_usart.o
 .debug_aranges
                0x000010c0      0x108 ./gecko_sdk_4.2.3/platform/service/sleeptimer/src/sl_sleeptimer.o
 .debug_aranges
                0x000011c8       0x78 ./gecko_sdk_4.2.3/platform/service/sleeptimer/src/sl_sleeptimer_hal_sysrtc.o
 .debug_aranges
                0x00001240       0x20 ./gecko_sdk_4.2.3/platform/service/system/src/sl_system_init.o
 .debug_aranges
                0x00001260       0x20 ./gecko_sdk_4.2.3/platform/service/system/src/sl_system_process_action.o
 .debug_aranges
                0x00001280       0x20 ./gecko_sdk_4.2.3/platform/service/udelay/src/sl_udelay.o
 .debug_aranges
                0x000012a0       0x20 ./gecko_sdk_4.2.3/platform/service/udelay/src/sl_udelay_armv6m_gcc.o

.debug_ranges   0x00000000     0x1b98
 .debug_ranges  0x00000000       0xa0 ./ADC_lib.o
 .debug_ranges  0x000000a0       0x20 ./app.o
 .debug_ranges  0x000000c0       0x68 ./bh1750.o
 .debug_ranges  0x00000128       0x18 ./i2c_scan.o
 .debug_ranges  0x00000140       0x10 ./lora_uart.o
 .debug_ranges  0x00000150       0x10 ./main.o
 .debug_ranges  0x00000160       0x58 ./pms7003.o
 .debug_ranges  0x000001b8       0x10 ./autogen/sl_board_default_init.o
 .debug_ranges  0x000001c8       0x10 ./autogen/sl_device_init_clocks.o
 .debug_ranges  0x000001d8       0x38 ./autogen/sl_event_handler.o
 .debug_ranges  0x00000210       0x10 ./autogen/sl_i2cspm_init.o
 .debug_ranges  0x00000220       0x20 ./autogen/sl_iostream_init_eusart_instances.o
 .debug_ranges  0x00000240       0x20 ./autogen/sl_iostream_init_usart_instances.o
 .debug_ranges  0x00000260       0x98 ./gecko_sdk_4.2.3/app/common/util/app_log/app_log.o
 .debug_ranges  0x000002f8       0x48 ./gecko_sdk_4.2.3/hardware/board/src/sl_board_control_gpio.o
 .debug_ranges  0x00000340       0x18 ./gecko_sdk_4.2.3/hardware/board/src/sl_board_init.o
 .debug_ranges  0x00000358      0x108 ./gecko_sdk_4.2.3/hardware/driver/bmp280/bosch/BMP280_driver/bmp280.o
 .debug_ranges  0x00000460       0x80 ./gecko_sdk_4.2.3/hardware/driver/bmp280/src/sl_bmp280.o
 .debug_ranges  0x000004e0       0x80 ./gecko_sdk_4.2.3/platform/Device/SiliconLabs/EFR32MG24/Source/startup_efr32mg24.o
 .debug_ranges  0x00000560       0x98 ./gecko_sdk_4.2.3/platform/Device/SiliconLabs/EFR32MG24/Source/system_efr32mg24.o
 .debug_ranges  0x000005f8       0x10 ./gecko_sdk_4.2.3/platform/common/src/sl_assert.o
 .debug_ranges  0x00000608       0x20 ./gecko_sdk_4.2.3/platform/common/toolchain/src/sl_memory.o
 .debug_ranges  0x00000628       0x58 ./gecko_sdk_4.2.3/platform/driver/i2cspm/src/sl_i2cspm.o
 .debug_ranges  0x00000680       0x98 ./gecko_sdk_4.2.3/platform/emdrv/dmadrv/src/dmadrv.o
 .debug_ranges  0x00000718      0x388 ./gecko_sdk_4.2.3/platform/emlib/src/em_cmu.o
 .debug_ranges  0x00000aa0      0x1a0 ./gecko_sdk_4.2.3/platform/emlib/src/em_core.o
 .debug_ranges  0x00000c40      0x260 ./gecko_sdk_4.2.3/platform/emlib/src/em_emu.o
 .debug_ranges  0x00000ea0      0x1a0 ./gecko_sdk_4.2.3/platform/emlib/src/em_eusart.o
 .debug_ranges  0x00001040       0x70 ./gecko_sdk_4.2.3/platform/emlib/src/em_gpio.o
 .debug_ranges  0x000010b0      0x178 ./gecko_sdk_4.2.3/platform/emlib/src/em_i2c.o
 .debug_ranges  0x00001228      0x158 ./gecko_sdk_4.2.3/platform/emlib/src/em_iadc.o
 .debug_ranges  0x00001380       0x88 ./gecko_sdk_4.2.3/platform/emlib/src/em_ldma.o
 .debug_ranges  0x00001408       0x38 ./gecko_sdk_4.2.3/platform/emlib/src/em_system.o
 .debug_ranges  0x00001440       0xa8 ./gecko_sdk_4.2.3/platform/emlib/src/em_usart.o
 .debug_ranges  0x000014e8       0x80 ./gecko_sdk_4.2.3/platform/peripheral/src/peripheral_sysrtc.o
 .debug_ranges  0x00001568       0x10 ./gecko_sdk_4.2.3/platform/service/device_init/src/sl_device_init_dcdc_s2.o
 .debug_ranges  0x00001578       0x10 ./gecko_sdk_4.2.3/platform/service/device_init/src/sl_device_init_emu_s2.o
 .debug_ranges  0x00001588       0x10 ./gecko_sdk_4.2.3/platform/service/device_init/src/sl_device_init_hfxo_s2.o
 .debug_ranges  0x00001598       0x10 ./gecko_sdk_4.2.3/platform/service/device_init/src/sl_device_init_lfxo_s2.o
 .debug_ranges  0x000015a8       0x48 ./gecko_sdk_4.2.3/platform/service/device_init/src/sl_device_init_nvic.o
 .debug_ranges  0x000015f0       0x48 ./gecko_sdk_4.2.3/platform/service/iostream/src/sl_iostream.o
 .debug_ranges  0x00001638       0xc0 ./gecko_sdk_4.2.3/platform/service/iostream/src/sl_iostream_eusart.o
 .debug_ranges  0x000016f8       0x50 ./gecko_sdk_4.2.3/platform/service/iostream/src/sl_iostream_retarget_stdio.o
 .debug_ranges  0x00001748       0x10 ./gecko_sdk_4.2.3/platform/service/iostream/src/sl_iostream_stdlib_config.o
 .debug_ranges  0x00001758       0xf8 ./gecko_sdk_4.2.3/platform/service/iostream/src/sl_iostream_uart.o
 .debug_ranges  0x00001850       0x68 ./gecko_sdk_4.2.3/platform/service/iostream/src/sl_iostream_usart.o
 .debug_ranges  0x000018b8      0x1b0 ./gecko_sdk_4.2.3/platform/service/sleeptimer/src/sl_sleeptimer.o
 .debug_ranges  0x00001a68       0xe8 ./gecko_sdk_4.2.3/platform/service/sleeptimer/src/sl_sleeptimer_hal_sysrtc.o
 .debug_ranges  0x00001b50       0x10 ./gecko_sdk_4.2.3/platform/service/system/src/sl_system_init.o
 .debug_ranges  0x00001b60       0x10 ./gecko_sdk_4.2.3/platform/service/system/src/sl_system_process_action.o
 .debug_ranges  0x00001b70       0x28 ./gecko_sdk_4.2.3/platform/service/udelay/src/sl_udelay.o

.debug_line     0x00000000    0x16d84
 .debug_line    0x00000000      0x634 ./ADC_lib.o
 .debug_line    0x00000634      0x49c ./app.o
 .debug_line    0x00000ad0      0x557 ./bh1750.o
 .debug_line    0x00001027      0x448 ./i2c_scan.o
 .debug_line    0x0000146f      0x419 ./lora_uart.o
 .debug_line    0x00001888       0xef ./main.o
 .debug_line    0x00001977      0x5cf ./pms7003.o
 .debug_line    0x00001f46       0x55 ./autogen/sl_board_default_init.o
 .debug_line    0x00001f9b      0x2c6 ./autogen/sl_device_init_clocks.o
 .debug_line    0x00002261      0x49d ./autogen/sl_event_handler.o
 .debug_line    0x000026fe      0x2a4 ./autogen/sl_i2cspm_init.o
 .debug_line    0x000029a2      0x517 ./autogen/sl_iostream_init_eusart_instances.o
 .debug_line    0x00002eb9      0x519 ./autogen/sl_iostream_init_usart_instances.o
 .debug_line    0x000033d2      0x5f0 ./gecko_sdk_4.2.3/app/common/util/app_log/app_log.o
 .debug_line    0x000039c2      0x3c7 ./gecko_sdk_4.2.3/hardware/board/src/sl_board_control_gpio.o
 .debug_line    0x00003d89      0x10f ./gecko_sdk_4.2.3/hardware/board/src/sl_board_init.o
 .debug_line    0x00003e98     0x1105 ./gecko_sdk_4.2.3/hardware/driver/bmp280/bosch/BMP280_driver/bmp280.o
 .debug_line    0x00004f9d      0x80f ./gecko_sdk_4.2.3/hardware/driver/bmp280/src/sl_bmp280.o
 .debug_line    0x000057ac      0x32a ./gecko_sdk_4.2.3/platform/Device/SiliconLabs/EFR32MG24/Source/startup_efr32mg24.o
 .debug_line    0x00005ad6      0x5ff ./gecko_sdk_4.2.3/platform/Device/SiliconLabs/EFR32MG24/Source/system_efr32mg24.o
 .debug_line    0x000060d5       0xae ./gecko_sdk_4.2.3/platform/common/src/sl_assert.o
 .debug_line    0x00006183      0x2ef ./gecko_sdk_4.2.3/platform/common/toolchain/src/sl_memory.o
 .debug_line    0x00006472      0x5a1 ./gecko_sdk_4.2.3/platform/driver/i2cspm/src/sl_i2cspm.o
 .debug_line    0x00006a13      0xafc ./gecko_sdk_4.2.3/platform/emdrv/dmadrv/src/dmadrv.o
 .debug_line    0x0000750f     0x2fcd ./gecko_sdk_4.2.3/platform/emlib/src/em_cmu.o
 .debug_line    0x0000a4dc      0xaa8 ./gecko_sdk_4.2.3/platform/emlib/src/em_core.o
 .debug_line    0x0000af84      0xe0b ./gecko_sdk_4.2.3/platform/emlib/src/em_emu.o
 .debug_line    0x0000bd8f     0x158f ./gecko_sdk_4.2.3/platform/emlib/src/em_eusart.o
 .debug_line    0x0000d31e      0x76a ./gecko_sdk_4.2.3/platform/emlib/src/em_gpio.o
 .debug_line    0x0000da88      0xbd0 ./gecko_sdk_4.2.3/platform/emlib/src/em_i2c.o
 .debug_line    0x0000e658     0x1239 ./gecko_sdk_4.2.3/platform/emlib/src/em_iadc.o
 .debug_line    0x0000f891      0x7af ./gecko_sdk_4.2.3/platform/emlib/src/em_ldma.o
 .debug_line    0x00010040      0x399 ./gecko_sdk_4.2.3/platform/emlib/src/em_system.o
 .debug_line    0x000103d9      0xc2a ./gecko_sdk_4.2.3/platform/emlib/src/em_usart.o
 .debug_line    0x00011003      0x710 ./gecko_sdk_4.2.3/platform/peripheral/src/peripheral_sysrtc.o
 .debug_line    0x00011713      0x26d ./gecko_sdk_4.2.3/platform/service/device_init/src/sl_device_init_dcdc_s2.o
 .debug_line    0x00011980      0x2fa ./gecko_sdk_4.2.3/platform/service/device_init/src/sl_device_init_emu_s2.o
 .debug_line    0x00011c7a      0x357 ./gecko_sdk_4.2.3/platform/service/device_init/src/sl_device_init_hfxo_s2.o
 .debug_line    0x00011fd1      0x277 ./gecko_sdk_4.2.3/platform/service/device_init/src/sl_device_init_lfxo_s2.o
 .debug_line    0x00012248      0x350 ./gecko_sdk_4.2.3/platform/service/device_init/src/sl_device_init_nvic.o
 .debug_line    0x00012598      0x5ae ./gecko_sdk_4.2.3/platform/service/iostream/src/sl_iostream.o
 .debug_line    0x00012b46      0x9ba ./gecko_sdk_4.2.3/platform/service/iostream/src/sl_iostream_eusart.o
 .debug_line    0x00013500      0x468 ./gecko_sdk_4.2.3/platform/service/iostream/src/sl_iostream_retarget_stdio.o
 .debug_line    0x00013968      0x22b ./gecko_sdk_4.2.3/platform/service/iostream/src/sl_iostream_stdlib_config.o
 .debug_line    0x00013b93      0xc9b ./gecko_sdk_4.2.3/platform/service/iostream/src/sl_iostream_uart.o
 .debug_line    0x0001482e      0x868 ./gecko_sdk_4.2.3/platform/service/iostream/src/sl_iostream_usart.o
 .debug_line    0x00015096     0x107e ./gecko_sdk_4.2.3/platform/service/sleeptimer/src/sl_sleeptimer.o
 .debug_line    0x00016114      0x6e1 ./gecko_sdk_4.2.3/platform/service/sleeptimer/src/sl_sleeptimer_hal_sysrtc.o
 .debug_line    0x000167f5       0xfc ./gecko_sdk_4.2.3/platform/service/system/src/sl_system_init.o
 .debug_line    0x000168f1      0x105 ./gecko_sdk_4.2.3/platform/service/system/src/sl_system_process_action.o
 .debug_line    0x000169f6      0x2ed ./gecko_sdk_4.2.3/platform/service/udelay/src/sl_udelay.o
 .debug_line    0x00016ce3       0xa1 ./gecko_sdk_4.2.3/platform/service/udelay/src/sl_udelay_armv6m_gcc.o

.debug_str      0x00000000    0x1114b
 .debug_str     0x00000000     0x3435 ./ADC_lib.o
                               0x36fc (size before relaxing)
 .debug_str     0x00003435      0x45c ./app.o
                                0x82a (size before relaxing)
 .debug_str     0x00003891      0x190 ./bh1750.o
                                0x794 (size before relaxing)
 .debug_str     0x00003a21       0x78 ./i2c_scan.o
                                0x5a8 (size before relaxing)
 .debug_str     0x00003a99       0x84 ./lora_uart.o
                                0x357 (size before relaxing)
 .debug_str     0x00003b1d       0x37 ./main.o
                                0x191 (size before relaxing)
 .debug_str     0x00003b54       0x75 ./pms7003.o
                                0x399 (size before relaxing)
 .debug_str     0x00003bc9       0x39 ./autogen/sl_board_default_init.o
                                0x1fb (size before relaxing)
 .debug_str     0x00003c02      0x941 ./autogen/sl_device_init_clocks.o
                                0xe1d (size before relaxing)
 .debug_str     0x00004543      0x23d ./autogen/sl_event_handler.o
                                0x420 (size before relaxing)
 .debug_str     0x00004780       0xd1 ./autogen/sl_i2cspm_init.o
                                0xa7e (size before relaxing)
 .debug_str     0x00004851     0x1028 ./autogen/sl_iostream_init_eusart_instances.o
                               0x1e75 (size before relaxing)
 .debug_str     0x00005879      0x543 ./autogen/sl_iostream_init_usart_instances.o
                               0x1cc7 (size before relaxing)
 .debug_str     0x00005dbc      0x271 ./gecko_sdk_4.2.3/app/common/util/app_log/app_log.o
                                0x547 (size before relaxing)
 .debug_str     0x0000602d      0x2bb ./gecko_sdk_4.2.3/hardware/board/src/sl_board_control_gpio.o
                                0x4df (size before relaxing)
 .debug_str     0x000062e8       0x5f ./gecko_sdk_4.2.3/hardware/board/src/sl_board_init.o
                                0x6bf (size before relaxing)
 .debug_str     0x00006347      0x662 ./gecko_sdk_4.2.3/hardware/driver/bmp280/bosch/BMP280_driver/bmp280.o
                                0x942 (size before relaxing)
 .debug_str     0x000069a9      0x129 ./gecko_sdk_4.2.3/hardware/driver/bmp280/src/sl_bmp280.o
                                0xa66 (size before relaxing)
 .debug_str     0x00006ad2      0x172 ./gecko_sdk_4.2.3/platform/Device/SiliconLabs/EFR32MG24/Source/startup_efr32mg24.o
                                0x34f (size before relaxing)
 .debug_str     0x00006c44      0x634 ./gecko_sdk_4.2.3/platform/Device/SiliconLabs/EFR32MG24/Source/system_efr32mg24.o
                               0x1788 (size before relaxing)
 .debug_str     0x00007278       0x61 ./gecko_sdk_4.2.3/platform/common/src/sl_assert.o
                                0x1b3 (size before relaxing)
 .debug_str     0x000072d9       0xfb ./gecko_sdk_4.2.3/platform/common/toolchain/src/sl_memory.o
                                0x2ed (size before relaxing)
 .debug_str     0x000073d4       0xe7 ./gecko_sdk_4.2.3/platform/driver/i2cspm/src/sl_i2cspm.o
                               0x1aab (size before relaxing)
 .debug_str     0x000074bb      0xcfd ./gecko_sdk_4.2.3/platform/emdrv/dmadrv/src/dmadrv.o
                               0x10ae (size before relaxing)
 .debug_str     0x000081b8     0x40d9 ./gecko_sdk_4.2.3/platform/emlib/src/em_cmu.o
                               0x6507 (size before relaxing)
 .debug_str     0x0000c291      0x316 ./gecko_sdk_4.2.3/platform/emlib/src/em_core.o
                                0xb58 (size before relaxing)
 .debug_str     0x0000c5a7      0xc60 ./gecko_sdk_4.2.3/platform/emlib/src/em_emu.o
                               0x2257 (size before relaxing)
 .debug_str     0x0000d207      0xfaf ./gecko_sdk_4.2.3/platform/emlib/src/em_eusart.o
                               0x53dd (size before relaxing)
 .debug_str     0x0000e1b6      0x147 ./gecko_sdk_4.2.3/platform/emlib/src/em_gpio.o
                               0x16de (size before relaxing)
 .debug_str     0x0000e2fd      0x1f1 ./gecko_sdk_4.2.3/platform/emlib/src/em_i2c.o
                                0xd36 (size before relaxing)
 .debug_str     0x0000e4ee      0x34b ./gecko_sdk_4.2.3/platform/emlib/src/em_iadc.o
                               0x26ed (size before relaxing)
 .debug_str     0x0000e839       0xdd ./gecko_sdk_4.2.3/platform/emlib/src/em_ldma.o
                               0x152a (size before relaxing)
 .debug_str     0x0000e916      0x1bf ./gecko_sdk_4.2.3/platform/emlib/src/em_system.o
                               0x1445 (size before relaxing)
 .debug_str     0x0000ead5      0x393 ./gecko_sdk_4.2.3/platform/emlib/src/em_usart.o
                               0x4581 (size before relaxing)
 .debug_str     0x0000ee68      0x6ef ./gecko_sdk_4.2.3/platform/peripheral/src/peripheral_sysrtc.o
                                0xb5d (size before relaxing)
 .debug_str     0x0000f557       0x76 ./gecko_sdk_4.2.3/platform/service/device_init/src/sl_device_init_dcdc_s2.o
                                0x8e3 (size before relaxing)
 .debug_str     0x0000f5cd       0x7e ./gecko_sdk_4.2.3/platform/service/device_init/src/sl_device_init_emu_s2.o
                                0x971 (size before relaxing)
 .debug_str     0x0000f64b      0x52c ./gecko_sdk_4.2.3/platform/service/device_init/src/sl_device_init_hfxo_s2.o
                                0xc04 (size before relaxing)
 .debug_str     0x0000fb77      0x1eb ./gecko_sdk_4.2.3/platform/service/device_init/src/sl_device_init_lfxo_s2.o
                                0x4d3 (size before relaxing)
 .debug_str     0x0000fd62       0x73 ./gecko_sdk_4.2.3/platform/service/device_init/src/sl_device_init_nvic.o
                                0x853 (size before relaxing)
 .debug_str     0x0000fdd5      0x11c ./gecko_sdk_4.2.3/platform/service/iostream/src/sl_iostream.o
                                0x411 (size before relaxing)
 .debug_str     0x0000fef1      0x155 ./gecko_sdk_4.2.3/platform/service/iostream/src/sl_iostream_eusart.o
                               0x322c (size before relaxing)
 .debug_str     0x00010046      0x197 ./gecko_sdk_4.2.3/platform/service/iostream/src/sl_iostream_retarget_stdio.o
                                0x428 (size before relaxing)
 .debug_str     0x000101dd      0x395 ./gecko_sdk_4.2.3/platform/service/iostream/src/sl_iostream_stdlib_config.o
                                0x5cb (size before relaxing)
 .debug_str     0x00010572      0x1b3 ./gecko_sdk_4.2.3/platform/service/iostream/src/sl_iostream_uart.o
                               0x1069 (size before relaxing)
 .debug_str     0x00010725       0x6e ./gecko_sdk_4.2.3/platform/service/iostream/src/sl_iostream_usart.o
                               0x2888 (size before relaxing)
 .debug_str     0x00010793      0x6a9 ./gecko_sdk_4.2.3/platform/service/sleeptimer/src/sl_sleeptimer.o
                                0xb6d (size before relaxing)
 .debug_str     0x00010e3c      0x12a ./gecko_sdk_4.2.3/platform/service/sleeptimer/src/sl_sleeptimer_hal_sysrtc.o
                               0x1632 (size before relaxing)
 .debug_str     0x00010f66       0x69 ./gecko_sdk_4.2.3/platform/service/system/src/sl_system_init.o
                                0x209 (size before relaxing)
 .debug_str     0x00010fcf       0x73 ./gecko_sdk_4.2.3/platform/service/system/src/sl_system_process_action.o
                                0x236 (size before relaxing)
 .debug_str     0x00011042       0x8c ./gecko_sdk_4.2.3/platform/service/udelay/src/sl_udelay.o
                                0x2a3 (size before relaxing)
 .debug_str     0x000110ce       0x7d ./gecko_sdk_4.2.3/platform/service/udelay/src/sl_udelay_armv6m_gcc.o
                                 0xcb (size before relaxing)

.debug_frame    0x00000000     0x4608
 .debug_frame   0x00000000       0xc0 ./ADC_lib.o
 .debug_frame   0x000000c0       0x60 ./app.o
 .debug_frame   0x00000120       0xcc ./bh1750.o
 .debug_frame   0x000001ec       0x58 ./i2c_scan.o
 .debug_frame   0x00000244       0x3c ./lora_uart.o
 .debug_frame   0x00000280       0x28 ./main.o
 .debug_frame   0x000002a8       0x98 ./pms7003.o
 .debug_frame   0x00000340       0x20 ./autogen/sl_board_default_init.o
 .debug_frame   0x00000360       0x28 ./autogen/sl_device_init_clocks.o
 .debug_frame   0x00000388       0xd4 ./autogen/sl_event_handler.o
 .debug_frame   0x0000045c       0x2c ./autogen/sl_i2cspm_init.o
 .debug_frame   0x00000488       0x64 ./autogen/sl_iostream_init_eusart_instances.o
 .debug_frame   0x000004ec       0x70 ./autogen/sl_iostream_init_usart_instances.o
 .debug_frame   0x0000055c      0x114 ./gecko_sdk_4.2.3/app/common/util/app_log/app_log.o
 .debug_frame   0x00000670       0xf0 ./gecko_sdk_4.2.3/hardware/board/src/sl_board_control_gpio.o
 .debug_frame   0x00000760       0x3c ./gecko_sdk_4.2.3/hardware/board/src/sl_board_init.o
 .debug_frame   0x0000079c      0x444 ./gecko_sdk_4.2.3/hardware/driver/bmp280/bosch/BMP280_driver/bmp280.o
 .debug_frame   0x00000be0      0x108 ./gecko_sdk_4.2.3/hardware/driver/bmp280/src/sl_bmp280.o
 .debug_frame   0x00000ce8       0x38 ./gecko_sdk_4.2.3/platform/Device/SiliconLabs/EFR32MG24/Source/startup_efr32mg24.o
 .debug_frame   0x00000d20      0x110 ./gecko_sdk_4.2.3/platform/Device/SiliconLabs/EFR32MG24/Source/system_efr32mg24.o
 .debug_frame   0x00000e30       0x20 ./gecko_sdk_4.2.3/platform/common/src/sl_assert.o
 .debug_frame   0x00000e50       0x40 ./gecko_sdk_4.2.3/platform/common/toolchain/src/sl_memory.o
 .debug_frame   0x00000e90       0x68 ./gecko_sdk_4.2.3/platform/driver/i2cspm/src/sl_i2cspm.o
 .debug_frame   0x00000ef8      0x210 ./gecko_sdk_4.2.3/platform/emdrv/dmadrv/src/dmadrv.o
 .debug_frame   0x00001108      0x648 ./gecko_sdk_4.2.3/platform/emlib/src/em_cmu.o
 .debug_frame   0x00001750      0x254 ./gecko_sdk_4.2.3/platform/emlib/src/em_core.o
 .debug_frame   0x000019a4      0x308 ./gecko_sdk_4.2.3/platform/emlib/src/em_emu.o
 .debug_frame   0x00001cac      0x2a4 ./gecko_sdk_4.2.3/platform/emlib/src/em_eusart.o
 .debug_frame   0x00001f50      0x16c ./gecko_sdk_4.2.3/platform/emlib/src/em_gpio.o
 .debug_frame   0x000020bc       0xf4 ./gecko_sdk_4.2.3/platform/emlib/src/em_i2c.o
 .debug_frame   0x000021b0      0x230 ./gecko_sdk_4.2.3/platform/emlib/src/em_iadc.o
 .debug_frame   0x000023e0       0xe0 ./gecko_sdk_4.2.3/platform/emlib/src/em_ldma.o
 .debug_frame   0x000024c0       0x48 ./gecko_sdk_4.2.3/platform/emlib/src/em_system.o
 .debug_frame   0x00002508      0x1ec ./gecko_sdk_4.2.3/platform/emlib/src/em_usart.o
 .debug_frame   0x000026f4      0x130 ./gecko_sdk_4.2.3/platform/peripheral/src/peripheral_sysrtc.o
 .debug_frame   0x00002824       0x28 ./gecko_sdk_4.2.3/platform/service/device_init/src/sl_device_init_dcdc_s2.o
 .debug_frame   0x0000284c       0x2c ./gecko_sdk_4.2.3/platform/service/device_init/src/sl_device_init_emu_s2.o
 .debug_frame   0x00002878       0x34 ./gecko_sdk_4.2.3/platform/service/device_init/src/sl_device_init_hfxo_s2.o
 .debug_frame   0x000028ac       0x30 ./gecko_sdk_4.2.3/platform/service/device_init/src/sl_device_init_lfxo_s2.o
 .debug_frame   0x000028dc       0x28 ./gecko_sdk_4.2.3/platform/service/device_init/src/sl_device_init_nvic.o
 .debug_frame   0x00002904       0xfc ./gecko_sdk_4.2.3/platform/service/iostream/src/sl_iostream.o
 .debug_frame   0x00002a00       0xa4 ./gecko_sdk_4.2.3/platform/service/iostream/src/sl_iostream_eusart.o
 .debug_frame   0x00002aa4       0xb0 ./gecko_sdk_4.2.3/platform/service/iostream/src/sl_iostream_retarget_stdio.o
 .debug_frame   0x00002b54       0x20 ./gecko_sdk_4.2.3/platform/service/iostream/src/sl_iostream_stdlib_config.o
 .debug_frame   0x00002b74      0x110 ./gecko_sdk_4.2.3/platform/service/iostream/src/sl_iostream_uart.o
 .debug_frame   0x00002c84       0x98 ./gecko_sdk_4.2.3/platform/service/iostream/src/sl_iostream_usart.o
 .debug_frame   0x00002d1c      0x37c ./gecko_sdk_4.2.3/platform/service/sleeptimer/src/sl_sleeptimer.o
 .debug_frame   0x00003098      0x114 ./gecko_sdk_4.2.3/platform/service/sleeptimer/src/sl_sleeptimer_hal_sysrtc.o
 .debug_frame   0x000031ac       0x2c ./gecko_sdk_4.2.3/platform/service/system/src/sl_system_init.o
 .debug_frame   0x000031d8       0x2c ./gecko_sdk_4.2.3/platform/service/system/src/sl_system_process_action.o
 .debug_frame   0x00003204       0x38 ./gecko_sdk_4.2.3/platform/service/udelay/src/sl_udelay.o
 .debug_frame   0x0000323c       0xac c:/siliconlabs/simplicitystudio/v5/developer/toolchains/gnu_arm/10.3_2021.10/bin/../lib/gcc/arm-none-eabi/10.3.1/thumb/v8-m.main+fp/hard\libgcc.a(_arm_addsubdf3.o)
 .debug_frame   0x000032e8       0x50 c:/siliconlabs/simplicitystudio/v5/developer/toolchains/gnu_arm/10.3_2021.10/bin/../lib/gcc/arm-none-eabi/10.3.1/thumb/v8-m.main+fp/hard\libgcc.a(_arm_muldivdf3.o)
 .debug_frame   0x00003338       0xc4 c:/siliconlabs/simplicitystudio/v5/developer/toolchains/gnu_arm/10.3_2021.10/bin/../lib/gcc/arm-none-eabi/10.3.1/thumb/v8-m.main+fp/hard\libgcc.a(_arm_cmpdf2.o)
 .debug_frame   0x000033fc       0x24 c:/siliconlabs/simplicitystudio/v5/developer/toolchains/gnu_arm/10.3_2021.10/bin/../lib/gcc/arm-none-eabi/10.3.1/thumb/v8-m.main+fp/hard\libgcc.a(_arm_fixdfsi.o)
 .debug_frame   0x00003420       0x24 c:/siliconlabs/simplicitystudio/v5/developer/toolchains/gnu_arm/10.3_2021.10/bin/../lib/gcc/arm-none-eabi/10.3.1/thumb/v8-m.main+fp/hard\libgcc.a(_arm_truncdfsf2.o)
 .debug_frame   0x00003444       0x44 c:/siliconlabs/simplicitystudio/v5/developer/toolchains/gnu_arm/10.3_2021.10/bin/../lib/gcc/arm-none-eabi/10.3.1/thumb/v8-m.main+fp/hard\libgcc.a(_aeabi_ldivmod.o)
 .debug_frame   0x00003488       0x2c c:/siliconlabs/simplicitystudio/v5/developer/toolchains/gnu_arm/10.3_2021.10/bin/../lib/gcc/arm-none-eabi/10.3.1/thumb/v8-m.main+fp/hard\libgcc.a(_aeabi_uldivmod.o)
 .debug_frame   0x000034b4       0x38 c:/siliconlabs/simplicitystudio/v5/developer/toolchains/gnu_arm/10.3_2021.10/bin/../lib/gcc/arm-none-eabi/10.3.1/thumb/v8-m.main+fp/hard\libgcc.a(_udivmoddi4.o)
 .debug_frame   0x000034ec       0x28 c:/siliconlabs/simplicitystudio/v5/developer/toolchains/gnu_arm/10.3_2021.10/bin/../lib/gcc/arm-none-eabi/10.3.1/../../../../arm-none-eabi/lib/thumb/v8-m.main+fp/hard\libc_nano.a(lib_a-exit.o)
 .debug_frame   0x00003514       0x2c c:/siliconlabs/simplicitystudio/v5/developer/toolchains/gnu_arm/10.3_2021.10/bin/../lib/gcc/arm-none-eabi/10.3.1/../../../../arm-none-eabi/lib/thumb/v8-m.main+fp/hard\libc_nano.a(lib_a-init.o)
 .debug_frame   0x00003540       0x28 c:/siliconlabs/simplicitystudio/v5/developer/toolchains/gnu_arm/10.3_2021.10/bin/../lib/gcc/arm-none-eabi/10.3.1/../../../../arm-none-eabi/lib/thumb/v8-m.main+fp/hard\libc_nano.a(lib_a-memcpy-stub.o)
 .debug_frame   0x00003568       0x20 c:/siliconlabs/simplicitystudio/v5/developer/toolchains/gnu_arm/10.3_2021.10/bin/../lib/gcc/arm-none-eabi/10.3.1/../../../../arm-none-eabi/lib/thumb/v8-m.main+fp/hard\libc_nano.a(lib_a-memset.o)
 .debug_frame   0x00003588       0xa0 c:/siliconlabs/simplicitystudio/v5/developer/toolchains/gnu_arm/10.3_2021.10/bin/../lib/gcc/arm-none-eabi/10.3.1/../../../../arm-none-eabi/lib/thumb/v8-m.main+fp/hard\libc_nano.a(lib_a-nano-vfprintf_float.o)
 .debug_frame   0x00003628       0x60 c:/siliconlabs/simplicitystudio/v5/developer/toolchains/gnu_arm/10.3_2021.10/bin/../lib/gcc/arm-none-eabi/10.3.1/../../../../arm-none-eabi/lib/thumb/v8-m.main+fp/hard\libc_nano.a(lib_a-nano-vfprintf_i.o)
 .debug_frame   0x00003688       0x74 c:/siliconlabs/simplicitystudio/v5/developer/toolchains/gnu_arm/10.3_2021.10/bin/../lib/gcc/arm-none-eabi/10.3.1/../../../../arm-none-eabi/lib/thumb/v8-m.main+fp/hard\libc_nano.a(lib_a-printf.o)
 .debug_frame   0x000036fc       0x38 c:/siliconlabs/simplicitystudio/v5/developer/toolchains/gnu_arm/10.3_2021.10/bin/../lib/gcc/arm-none-eabi/10.3.1/../../../../arm-none-eabi/lib/thumb/v8-m.main+fp/hard\libc_nano.a(lib_a-setvbuf.o)
 .debug_frame   0x00003734       0x6c c:/siliconlabs/simplicitystudio/v5/developer/toolchains/gnu_arm/10.3_2021.10/bin/../lib/gcc/arm-none-eabi/10.3.1/../../../../arm-none-eabi/lib/thumb/v8-m.main+fp/hard\libc_nano.a(lib_a-sprintf.o)
 .debug_frame   0x000037a0       0x88 c:/siliconlabs/simplicitystudio/v5/developer/toolchains/gnu_arm/10.3_2021.10/bin/../lib/gcc/arm-none-eabi/10.3.1/../../../../arm-none-eabi/lib/thumb/v8-m.main+fp/hard\libc_nano.a(lib_a-dtoa.o)
 .debug_frame   0x00003828       0x5c c:/siliconlabs/simplicitystudio/v5/developer/toolchains/gnu_arm/10.3_2021.10/bin/../lib/gcc/arm-none-eabi/10.3.1/../../../../arm-none-eabi/lib/thumb/v8-m.main+fp/hard\libc_nano.a(lib_a-fflush.o)
 .debug_frame   0x00003884      0x14c c:/siliconlabs/simplicitystudio/v5/developer/toolchains/gnu_arm/10.3_2021.10/bin/../lib/gcc/arm-none-eabi/10.3.1/../../../../arm-none-eabi/lib/thumb/v8-m.main+fp/hard\libc_nano.a(lib_a-findfp.o)
 .debug_frame   0x000039d0       0x54 c:/siliconlabs/simplicitystudio/v5/developer/toolchains/gnu_arm/10.3_2021.10/bin/../lib/gcc/arm-none-eabi/10.3.1/../../../../arm-none-eabi/lib/thumb/v8-m.main+fp/hard\libc_nano.a(lib_a-fwalk.o)
 .debug_frame   0x00003a24       0x40 c:/siliconlabs/simplicitystudio/v5/developer/toolchains/gnu_arm/10.3_2021.10/bin/../lib/gcc/arm-none-eabi/10.3.1/../../../../arm-none-eabi/lib/thumb/v8-m.main+fp/hard\libc_nano.a(lib_a-localeconv.o)
 .debug_frame   0x00003a64       0xb0 c:/siliconlabs/simplicitystudio/v5/developer/toolchains/gnu_arm/10.3_2021.10/bin/../lib/gcc/arm-none-eabi/10.3.1/../../../../arm-none-eabi/lib/thumb/v8-m.main+fp/hard\libc_nano.a(lib_a-lock.o)
 .debug_frame   0x00003b14       0x58 c:/siliconlabs/simplicitystudio/v5/developer/toolchains/gnu_arm/10.3_2021.10/bin/../lib/gcc/arm-none-eabi/10.3.1/../../../../arm-none-eabi/lib/thumb/v8-m.main+fp/hard\libc_nano.a(lib_a-makebuf.o)
 .debug_frame   0x00003b6c       0x30 c:/siliconlabs/simplicitystudio/v5/developer/toolchains/gnu_arm/10.3_2021.10/bin/../lib/gcc/arm-none-eabi/10.3.1/../../../../arm-none-eabi/lib/thumb/v8-m.main+fp/hard\libc_nano.a(lib_a-malloc.o)
 .debug_frame   0x00003b9c       0x28 c:/siliconlabs/simplicitystudio/v5/developer/toolchains/gnu_arm/10.3_2021.10/bin/../lib/gcc/arm-none-eabi/10.3.1/../../../../arm-none-eabi/lib/thumb/v8-m.main+fp/hard\libc_nano.a(lib_a-memchr-stub.o)
 .debug_frame   0x00003bc4      0x25c c:/siliconlabs/simplicitystudio/v5/developer/toolchains/gnu_arm/10.3_2021.10/bin/../lib/gcc/arm-none-eabi/10.3.1/../../../../arm-none-eabi/lib/thumb/v8-m.main+fp/hard\libc_nano.a(lib_a-mprec.o)
 .debug_frame   0x00003e20       0x30 c:/siliconlabs/simplicitystudio/v5/developer/toolchains/gnu_arm/10.3_2021.10/bin/../lib/gcc/arm-none-eabi/10.3.1/../../../../arm-none-eabi/lib/thumb/v8-m.main+fp/hard\libc_nano.a(lib_a-nano-callocr.o)
 .debug_frame   0x00003e50       0x38 c:/siliconlabs/simplicitystudio/v5/developer/toolchains/gnu_arm/10.3_2021.10/bin/../lib/gcc/arm-none-eabi/10.3.1/../../../../arm-none-eabi/lib/thumb/v8-m.main+fp/hard\libc_nano.a(lib_a-nano-freer.o)
 .debug_frame   0x00003e88       0x4c c:/siliconlabs/simplicitystudio/v5/developer/toolchains/gnu_arm/10.3_2021.10/bin/../lib/gcc/arm-none-eabi/10.3.1/../../../../arm-none-eabi/lib/thumb/v8-m.main+fp/hard\libc_nano.a(lib_a-nano-mallocr.o)
 .debug_frame   0x00003ed4       0x90 c:/siliconlabs/simplicitystudio/v5/developer/toolchains/gnu_arm/10.3_2021.10/bin/../lib/gcc/arm-none-eabi/10.3.1/../../../../arm-none-eabi/lib/thumb/v8-m.main+fp/hard\libc_nano.a(lib_a-nano-svfprintf.o)
 .debug_frame   0x00003f64       0xac c:/siliconlabs/simplicitystudio/v5/developer/toolchains/gnu_arm/10.3_2021.10/bin/../lib/gcc/arm-none-eabi/10.3.1/../../../../arm-none-eabi/lib/thumb/v8-m.main+fp/hard\libc_nano.a(lib_a-nano-vfprintf.o)
 .debug_frame   0x00004010       0x2c c:/siliconlabs/simplicitystudio/v5/developer/toolchains/gnu_arm/10.3_2021.10/bin/../lib/gcc/arm-none-eabi/10.3.1/../../../../arm-none-eabi/lib/thumb/v8-m.main+fp/hard\libc_nano.a(lib_a-sbrkr.o)
 .debug_frame   0x0000403c       0x88 c:/siliconlabs/simplicitystudio/v5/developer/toolchains/gnu_arm/10.3_2021.10/bin/../lib/gcc/arm-none-eabi/10.3.1/../../../../arm-none-eabi/lib/thumb/v8-m.main+fp/hard\libc_nano.a(lib_a-stdio.o)
 .debug_frame   0x000040c4       0x40 c:/siliconlabs/simplicitystudio/v5/developer/toolchains/gnu_arm/10.3_2021.10/bin/../lib/gcc/arm-none-eabi/10.3.1/../../../../arm-none-eabi/lib/thumb/v8-m.main+fp/hard\libc_nano.a(lib_a-wbuf.o)
 .debug_frame   0x00004104       0x2c c:/siliconlabs/simplicitystudio/v5/developer/toolchains/gnu_arm/10.3_2021.10/bin/../lib/gcc/arm-none-eabi/10.3.1/../../../../arm-none-eabi/lib/thumb/v8-m.main+fp/hard\libc_nano.a(lib_a-writer.o)
 .debug_frame   0x00004130       0x2c c:/siliconlabs/simplicitystudio/v5/developer/toolchains/gnu_arm/10.3_2021.10/bin/../lib/gcc/arm-none-eabi/10.3.1/../../../../arm-none-eabi/lib/thumb/v8-m.main+fp/hard\libc_nano.a(lib_a-wsetup.o)
 .debug_frame   0x0000415c       0x40 c:/siliconlabs/simplicitystudio/v5/developer/toolchains/gnu_arm/10.3_2021.10/bin/../lib/gcc/arm-none-eabi/10.3.1/../../../../arm-none-eabi/lib/thumb/v8-m.main+fp/hard\libc_nano.a(lib_a-assert.o)
 .debug_frame   0x0000419c       0x2c c:/siliconlabs/simplicitystudio/v5/developer/toolchains/gnu_arm/10.3_2021.10/bin/../lib/gcc/arm-none-eabi/10.3.1/../../../../arm-none-eabi/lib/thumb/v8-m.main+fp/hard\libc_nano.a(lib_a-closer.o)
 .debug_frame   0x000041c8       0x64 c:/siliconlabs/simplicitystudio/v5/developer/toolchains/gnu_arm/10.3_2021.10/bin/../lib/gcc/arm-none-eabi/10.3.1/../../../../arm-none-eabi/lib/thumb/v8-m.main+fp/hard\libc_nano.a(lib_a-fprintf.o)
 .debug_frame   0x0000422c       0x2c c:/siliconlabs/simplicitystudio/v5/developer/toolchains/gnu_arm/10.3_2021.10/bin/../lib/gcc/arm-none-eabi/10.3.1/../../../../arm-none-eabi/lib/thumb/v8-m.main+fp/hard\libc_nano.a(lib_a-fstatr.o)
 .debug_frame   0x00004258       0x2c c:/siliconlabs/simplicitystudio/v5/developer/toolchains/gnu_arm/10.3_2021.10/bin/../lib/gcc/arm-none-eabi/10.3.1/../../../../arm-none-eabi/lib/thumb/v8-m.main+fp/hard\libc_nano.a(lib_a-isattyr.o)
 .debug_frame   0x00004284       0x48 c:/siliconlabs/simplicitystudio/v5/developer/toolchains/gnu_arm/10.3_2021.10/bin/../lib/gcc/arm-none-eabi/10.3.1/../../../../arm-none-eabi/lib/thumb/v8-m.main+fp/hard\libc_nano.a(lib_a-locale.o)
 .debug_frame   0x000042cc       0x2c c:/siliconlabs/simplicitystudio/v5/developer/toolchains/gnu_arm/10.3_2021.10/bin/../lib/gcc/arm-none-eabi/10.3.1/../../../../arm-none-eabi/lib/thumb/v8-m.main+fp/hard\libc_nano.a(lib_a-lseekr.o)
 .debug_frame   0x000042f8       0x48 c:/siliconlabs/simplicitystudio/v5/developer/toolchains/gnu_arm/10.3_2021.10/bin/../lib/gcc/arm-none-eabi/10.3.1/../../../../arm-none-eabi/lib/thumb/v8-m.main+fp/hard\libc_nano.a(lib_a-mbtowc_r.o)
 .debug_frame   0x00004340       0x28 c:/siliconlabs/simplicitystudio/v5/developer/toolchains/gnu_arm/10.3_2021.10/bin/../lib/gcc/arm-none-eabi/10.3.1/../../../../arm-none-eabi/lib/thumb/v8-m.main+fp/hard\libc_nano.a(lib_a-memmove.o)
 .debug_frame   0x00004368       0x30 c:/siliconlabs/simplicitystudio/v5/developer/toolchains/gnu_arm/10.3_2021.10/bin/../lib/gcc/arm-none-eabi/10.3.1/../../../../arm-none-eabi/lib/thumb/v8-m.main+fp/hard\libc_nano.a(lib_a-mlock.o)
 .debug_frame   0x00004398       0x3c c:/siliconlabs/simplicitystudio/v5/developer/toolchains/gnu_arm/10.3_2021.10/bin/../lib/gcc/arm-none-eabi/10.3.1/../../../../arm-none-eabi/lib/thumb/v8-m.main+fp/hard\libc_nano.a(lib_a-nano-reallocr.o)
 .debug_frame   0x000043d4       0x2c c:/siliconlabs/simplicitystudio/v5/developer/toolchains/gnu_arm/10.3_2021.10/bin/../lib/gcc/arm-none-eabi/10.3.1/../../../../arm-none-eabi/lib/thumb/v8-m.main+fp/hard\libc_nano.a(lib_a-readr.o)
 .debug_frame   0x00004400       0x5c c:/siliconlabs/simplicitystudio/v5/developer/toolchains/gnu_arm/10.3_2021.10/bin/../lib/gcc/arm-none-eabi/10.3.1/../../../../arm-none-eabi/lib/thumb/v8-m.main+fp/hard\libc_nano.a(lib_a-reent.o)
 .debug_frame   0x0000445c       0x3c c:/siliconlabs/simplicitystudio/v5/developer/toolchains/gnu_arm/10.3_2021.10/bin/../lib/gcc/arm-none-eabi/10.3.1/../../../../arm-none-eabi/lib/thumb/v8-m.main+fp/hard\libc_nano.a(lib_a-wctomb_r.o)
 .debug_frame   0x00004498       0x28 c:/siliconlabs/simplicitystudio/v5/developer/toolchains/gnu_arm/10.3_2021.10/bin/../lib/gcc/arm-none-eabi/10.3.1/../../../../arm-none-eabi/lib/thumb/v8-m.main+fp/hard\libc_nano.a(lib_a-abort.o)
 .debug_frame   0x000044c0       0x20 c:/siliconlabs/simplicitystudio/v5/developer/toolchains/gnu_arm/10.3_2021.10/bin/../lib/gcc/arm-none-eabi/10.3.1/../../../../arm-none-eabi/lib/thumb/v8-m.main+fp/hard\libc_nano.a(lib_a-nano-msizer.o)
 .debug_frame   0x000044e0       0xcc c:/siliconlabs/simplicitystudio/v5/developer/toolchains/gnu_arm/10.3_2021.10/bin/../lib/gcc/arm-none-eabi/10.3.1/../../../../arm-none-eabi/lib/thumb/v8-m.main+fp/hard\libc_nano.a(lib_a-signal.o)
 .debug_frame   0x000045ac       0x3c c:/siliconlabs/simplicitystudio/v5/developer/toolchains/gnu_arm/10.3_2021.10/bin/../lib/gcc/arm-none-eabi/10.3.1/../../../../arm-none-eabi/lib/thumb/v8-m.main+fp/hard\libc_nano.a(lib_a-signalr.o)
 .debug_frame   0x000045e8       0x20 c:/siliconlabs/simplicitystudio/v5/developer/toolchains/gnu_arm/10.3_2021.10/bin/../lib/gcc/arm-none-eabi/10.3.1/thumb/v8-m.main+fp/hard\libgcc.a(_arm_unorddf2.o)
